(lp0
(lp1
S'DYJetsToLL_M-10to50_TuneCUETP8M1_13TeV-amcatnloFXFX-pythia8-v2'
p2
aS'DYJetsToLL_M-10to50_TuneCUETP8M1_13TeV-amcatnloFXFX-pythia8/RunIISummer16MiniAODv3-PUMoriond17_94X_mcRun2_asymptotic_v3-v2/MINIAODSIM'
p3
aa(lp4
S'DYJetsToLL_M-10to50_TuneCUETP8M1_13TeV-amcatnloFXFX-pythia8_ext1-v2'
p5
aS'DYJetsToLL_M-10to50_TuneCUETP8M1_13TeV-amcatnloFXFX-pythia8/RunIISummer16MiniAODv3-PUMoriond17_94X_mcRun2_asymptotic_v3_ext1-v2/MINIAODSIM'
p6
aa(lp7
S'DYJetsToLL_M-50_TuneCUETP8M1_13TeV-amcatnloFXFX-pythia8_ext2-v1'
p8
aS'DYJetsToLL_M-50_TuneCUETP8M1_13TeV-amcatnloFXFX-pythia8/RunIISummer16MiniAODv3-PUMoriond17_94X_mcRun2_asymptotic_v3_ext2-v1/MINIAODSIM'
p9
aa(lp10
S'WW_TuneCUETP8M1_13TeV-pythia8-v2'
p11
aS'WW_TuneCUETP8M1_13TeV-pythia8/RunIISummer16MiniAODv3-PUMoriond17_94X_mcRun2_asymptotic_v3-v2/MINIAODSIM'
p12
aa(lp13
S'WW_TuneCUETP8M1_13TeV-pythia8_ext1-v2'
p14
aS'WW_TuneCUETP8M1_13TeV-pythia8/RunIISummer16MiniAODv3-PUMoriond17_94X_mcRun2_asymptotic_v3_ext1-v2/MINIAODSIM'
p15
aa(lp16
S'ZZ_TuneCUETP8M1_13TeV-pythia8-v2'
p17
aS'ZZ_TuneCUETP8M1_13TeV-pythia8/RunIISummer16MiniAODv3-PUMoriond17_94X_mcRun2_asymptotic_v3-v2/MINIAODSIM'
p18
aa(lp19
S'ZZ_TuneCUETP8M1_13TeV-pythia8_ext1-v2'
p20
aS'ZZ_TuneCUETP8M1_13TeV-pythia8/RunIISummer16MiniAODv3-PUMoriond17_94X_mcRun2_asymptotic_v3_ext1-v2/MINIAODSIM'
p21
aa(lp22
S'WZ_TuneCUETP8M1_13TeV-pythia8-v2'
p23
aS'WZ_TuneCUETP8M1_13TeV-pythia8/RunIISummer16MiniAODv3-PUMoriond17_94X_mcRun2_asymptotic_v3-v2/MINIAODSIM'
p24
aa(lp25
S'WZ_TuneCUETP8M1_13TeV-pythia8_ext1-v2'
p26
aS'WZ_TuneCUETP8M1_13TeV-pythia8/RunIISummer16MiniAODv3-PUMoriond17_94X_mcRun2_asymptotic_v3_ext1-v2/MINIAODSIM'
p27
aa(lp28
S'TT_TuneCUETP8M2T4_13TeV-powheg-pythia8-v1'
p29
aS'TT_TuneCUETP8M2T4_13TeV-powheg-pythia8/RunIISummer16MiniAODv3-PUMoriond17_94X_mcRun2_asymptotic_v3-v1/MINIAODSIM'
p30
aa(lp31
S'TTGJets_TuneCUETP8M1_13TeV-amcatnloFXFX-madspin-pythia8-v2'
p32
aS'TTGJets_TuneCUETP8M1_13TeV-amcatnloFXFX-madspin-pythia8/RunIISummer16MiniAODv3-PUMoriond17_94X_mcRun2_asymptotic_v3-v2/MINIAODSIM'
p33
aa(lp34
S'TTGJets_TuneCUETP8M1_13TeV-amcatnloFXFX-madspin-pythia8_ext1-v2'
p35
aS'TTGJets_TuneCUETP8M1_13TeV-amcatnloFXFX-madspin-pythia8/RunIISummer16MiniAODv3-PUMoriond17_94X_mcRun2_asymptotic_v3_ext1-v2/MINIAODSIM'
p36
aa(lp37
S'WJetsToLNu_TuneCUETP8M1_13TeV-amcatnloFXFX-pythia8-v1'
p38
aS'WJetsToLNu_TuneCUETP8M1_13TeV-amcatnloFXFX-pythia8/RunIISummer16MiniAODv3-PUMoriond17_94X_mcRun2_asymptotic_v3-v1/MINIAODSIM'
p39
aa(lp40
S'WJetsToLNu_TuneCUETP8M1_13TeV-amcatnloFXFX-pythia8_ext2-v1'
p41
aS'WJetsToLNu_TuneCUETP8M1_13TeV-amcatnloFXFX-pythia8/RunIISummer16MiniAODv3-PUMoriond17_94X_mcRun2_asymptotic_v3_ext2-v1/MINIAODSIM'
p42
aa(lp43
S'ST_t-channel_antitop_4f_inclusiveDecays_13TeV-powhegV2-madspin-pythia8_TuneCUETP8M1-v1'
p44
aS'ST_t-channel_antitop_4f_inclusiveDecays_13TeV-powhegV2-madspin-pythia8_TuneCUETP8M1/RunIISummer16MiniAODv3-PUMoriond17_94X_mcRun2_asymptotic_v3-v1/MINIAODSIM'
p45
aa(lp46
S'ST_t-channel_top_4f_inclusiveDecays_13TeV-powhegV2-madspin-pythia8_TuneCUETP8M1-v1'
p47
aS'ST_t-channel_top_4f_inclusiveDecays_13TeV-powhegV2-madspin-pythia8_TuneCUETP8M1/RunIISummer16MiniAODv3-PUMoriond17_94X_mcRun2_asymptotic_v3-v1/MINIAODSIM'
p48
aa(lp49
S'ST_tW_top_5f_NoFullyHadronicDecays_13TeV-powheg_TuneCUETP8M1-v1'
p50
aS'ST_tW_top_5f_NoFullyHadronicDecays_13TeV-powheg_TuneCUETP8M1/RunIISummer16MiniAODv3-PUMoriond17_94X_mcRun2_asymptotic_v3-v1/MINIAODSIM'
p51
aa(lp52
S'ST_tW_top_5f_NoFullyHadronicDecays_13TeV-powheg_TuneCUETP8M1_ext1-v2'
p53
aS'ST_tW_top_5f_NoFullyHadronicDecays_13TeV-powheg_TuneCUETP8M1/RunIISummer16MiniAODv3-PUMoriond17_94X_mcRun2_asymptotic_v3_ext1-v2/MINIAODSIM'
p54
aa(lp55
S'ST_tW_top_5f_NoFullyHadronicDecays_13TeV-powheg_TuneCUETP8M1_ext2-v1'
p56
aS'ST_tW_top_5f_NoFullyHadronicDecays_13TeV-powheg_TuneCUETP8M1/RunIISummer16MiniAODv3-94X_mcRun2_asymptotic_v3_ext2-v1/MINIAODSIM'
p57
aa(lp58
S'ST_tW_antitop_5f_NoFullyHadronicDecays_13TeV-powheg_TuneCUETP8M1-v1'
p59
aS'ST_tW_antitop_5f_NoFullyHadronicDecays_13TeV-powheg_TuneCUETP8M1/RunIISummer16MiniAODv3-PUMoriond17_94X_mcRun2_asymptotic_v3-v1/MINIAODSIM'
p60
aa(lp61
S'ST_tW_antitop_5f_NoFullyHadronicDecays_13TeV-powheg_TuneCUETP8M1_ext1-v2'
p62
aS'ST_tW_antitop_5f_NoFullyHadronicDecays_13TeV-powheg_TuneCUETP8M1/RunIISummer16MiniAODv3-PUMoriond17_94X_mcRun2_asymptotic_v3_ext1-v2/MINIAODSIM'
p63
aa(lp64
S'ST_tW_antitop_5f_NoFullyHadronicDecays_13TeV-powheg_TuneCUETP8M1_ext2-v1'
p65
aS'ST_tW_antitop_5f_NoFullyHadronicDecays_13TeV-powheg_TuneCUETP8M1/RunIISummer16MiniAODv3-94X_mcRun2_asymptotic_v3_ext2-v1/MINIAODSIM'
p66
aa(lp67
S'QCD_Pt-15to20_MuEnrichedPt5_TuneCUETP8M1_13TeV_pythia8-v2'
p68
aS'QCD_Pt-15to20_MuEnrichedPt5_TuneCUETP8M1_13TeV_pythia8/RunIISummer16MiniAODv3-PUMoriond17_94X_mcRun2_asymptotic_v3-v2/MINIAODSIM'
p69
aa(lp70
S'QCD_Pt-20to30_MuEnrichedPt5_TuneCUETP8M1_13TeV_pythia8-v2'
p71
aS'QCD_Pt-20to30_MuEnrichedPt5_TuneCUETP8M1_13TeV_pythia8/RunIISummer16MiniAODv3-PUMoriond17_94X_mcRun2_asymptotic_v3-v2/MINIAODSIM'
p72
aa(lp73
S'QCD_Pt-30to50_MuEnrichedPt5_TuneCUETP8M1_13TeV_pythia8-v2'
p74
aS'QCD_Pt-30to50_MuEnrichedPt5_TuneCUETP8M1_13TeV_pythia8/RunIISummer16MiniAODv3-PUMoriond17_94X_mcRun2_asymptotic_v3-v2/MINIAODSIM'
p75
aa(lp76
S'QCD_Pt-50to80_MuEnrichedPt5_TuneCUETP8M1_13TeV_pythia8-v2'
p77
aS'QCD_Pt-50to80_MuEnrichedPt5_TuneCUETP8M1_13TeV_pythia8/RunIISummer16MiniAODv3-PUMoriond17_94X_mcRun2_asymptotic_v3-v2/MINIAODSIM'
p78
aa(lp79
S'QCD_Pt-80to120_MuEnrichedPt5_TuneCUETP8M1_13TeV_pythia8-v2'
p80
aS'QCD_Pt-80to120_MuEnrichedPt5_TuneCUETP8M1_13TeV_pythia8/RunIISummer16MiniAODv3-PUMoriond17_94X_mcRun2_asymptotic_v3-v2/MINIAODSIM'
p81
aa(lp82
S'QCD_Pt-80to120_MuEnrichedPt5_TuneCUETP8M1_13TeV_pythia8_ext1-v2'
p83
aS'QCD_Pt-80to120_MuEnrichedPt5_TuneCUETP8M1_13TeV_pythia8/RunIISummer16MiniAODv3-PUMoriond17_94X_mcRun2_asymptotic_v3_ext1-v2/MINIAODSIM'
p84
aa(lp85
S'QCD_Pt-120to170_MuEnrichedPt5_TuneCUETP8M1_13TeV_pythia8-v2'
p86
aS'QCD_Pt-120to170_MuEnrichedPt5_TuneCUETP8M1_13TeV_pythia8/RunIISummer16MiniAODv3-PUMoriond17_94X_mcRun2_asymptotic_v3-v2/MINIAODSIM'
p87
aa(lp88
S'QCD_Pt-170to300_MuEnrichedPt5_TuneCUETP8M1_13TeV_pythia8-v1'
p89
aS'QCD_Pt-170to300_MuEnrichedPt5_TuneCUETP8M1_13TeV_pythia8/RunIISummer16MiniAODv3-PUMoriond17_94X_mcRun2_asymptotic_v3-v1/MINIAODSIM'
p90
aa(lp91
S'QCD_Pt-170to300_MuEnrichedPt5_TuneCUETP8M1_13TeV_pythia8_ext1-v2'
p92
aS'QCD_Pt-170to300_MuEnrichedPt5_TuneCUETP8M1_13TeV_pythia8/RunIISummer16MiniAODv3-PUMoriond17_94X_mcRun2_asymptotic_v3_ext1-v2/MINIAODSIM'
p93
aa(lp94
S'QCD_Pt-300to470_MuEnrichedPt5_TuneCUETP8M1_13TeV_pythia8-v2'
p95
aS'QCD_Pt-300to470_MuEnrichedPt5_TuneCUETP8M1_13TeV_pythia8/RunIISummer16MiniAODv3-PUMoriond17_94X_mcRun2_asymptotic_v3-v2/MINIAODSIM'
p96
aa(lp97
S'QCD_Pt-300to470_MuEnrichedPt5_TuneCUETP8M1_13TeV_pythia8_ext1-v1'
p98
aS'QCD_Pt-300to470_MuEnrichedPt5_TuneCUETP8M1_13TeV_pythia8/RunIISummer16MiniAODv3-PUMoriond17_94X_mcRun2_asymptotic_v3_ext1-v1/MINIAODSIM'
p99
aa(lp100
S'QCD_Pt-300to470_MuEnrichedPt5_TuneCUETP8M1_13TeV_pythia8_ext2-v2'
p101
aS'QCD_Pt-300to470_MuEnrichedPt5_TuneCUETP8M1_13TeV_pythia8/RunIISummer16MiniAODv3-PUMoriond17_94X_mcRun2_asymptotic_v3_ext2-v2/MINIAODSIM'
p102
aa(lp103
S'QCD_Pt-470to600_MuEnrichedPt5_TuneCUETP8M1_13TeV_pythia8-v2'
p104
aS'QCD_Pt-470to600_MuEnrichedPt5_TuneCUETP8M1_13TeV_pythia8/RunIISummer16MiniAODv3-PUMoriond17_94X_mcRun2_asymptotic_v3-v2/MINIAODSIM'
p105
aa(lp106
S'QCD_Pt-470to600_MuEnrichedPt5_TuneCUETP8M1_13TeV_pythia8_ext1-v2'
p107
aS'QCD_Pt-470to600_MuEnrichedPt5_TuneCUETP8M1_13TeV_pythia8/RunIISummer16MiniAODv3-PUMoriond17_94X_mcRun2_asymptotic_v3_ext1-v2/MINIAODSIM'
p108
aa(lp109
S'QCD_Pt-470to600_MuEnrichedPt5_TuneCUETP8M1_13TeV_pythia8_ext2-v2'
p110
aS'QCD_Pt-470to600_MuEnrichedPt5_TuneCUETP8M1_13TeV_pythia8/RunIISummer16MiniAODv3-PUMoriond17_94X_mcRun2_asymptotic_v3_ext2-v2/MINIAODSIM'
p111
aa(lp112
S'QCD_Pt-600to800_MuEnrichedPt5_TuneCUETP8M1_13TeV_pythia8-v2'
p113
aS'QCD_Pt-600to800_MuEnrichedPt5_TuneCUETP8M1_13TeV_pythia8/RunIISummer16MiniAODv3-PUMoriond17_94X_mcRun2_asymptotic_v3-v2/MINIAODSIM'
p114
aa(lp115
S'QCD_Pt-600to800_MuEnrichedPt5_TuneCUETP8M1_13TeV_pythia8_ext1-v2'
p116
aS'QCD_Pt-600to800_MuEnrichedPt5_TuneCUETP8M1_13TeV_pythia8/RunIISummer16MiniAODv3-PUMoriond17_94X_mcRun2_asymptotic_v3_ext1-v2/MINIAODSIM'
p117
aa(lp118
S'QCD_Pt-800to1000_MuEnrichedPt5_TuneCUETP8M1_13TeV_pythia8-v2'
p119
aS'QCD_Pt-800to1000_MuEnrichedPt5_TuneCUETP8M1_13TeV_pythia8/RunIISummer16MiniAODv3-PUMoriond17_94X_mcRun2_asymptotic_v3-v2/MINIAODSIM'
p120
aa(lp121
S'QCD_Pt-800to1000_MuEnrichedPt5_TuneCUETP8M1_13TeV_pythia8_ext1-v2'
p122
aS'QCD_Pt-800to1000_MuEnrichedPt5_TuneCUETP8M1_13TeV_pythia8/RunIISummer16MiniAODv3-PUMoriond17_94X_mcRun2_asymptotic_v3_ext1-v2/MINIAODSIM'
p123
aa(lp124
S'QCD_Pt-800to1000_MuEnrichedPt5_TuneCUETP8M1_13TeV_pythia8_ext2-v2'
p125
aS'QCD_Pt-800to1000_MuEnrichedPt5_TuneCUETP8M1_13TeV_pythia8/RunIISummer16MiniAODv3-PUMoriond17_94X_mcRun2_asymptotic_v3_ext2-v2/MINIAODSIM'
p126
aa(lp127
S'QCD_Pt-1000toInf_MuEnrichedPt5_TuneCUETP8M1_13TeV_pythia8-v2'
p128
aS'QCD_Pt-1000toInf_MuEnrichedPt5_TuneCUETP8M1_13TeV_pythia8/RunIISummer16MiniAODv3-PUMoriond17_94X_mcRun2_asymptotic_v3-v2/MINIAODSIM'
p129
aa(lp130
S'QCD_Pt-1000toInf_MuEnrichedPt5_TuneCUETP8M1_13TeV_pythia8_ext1-v2'
p131
aS'QCD_Pt-1000toInf_MuEnrichedPt5_TuneCUETP8M1_13TeV_pythia8/RunIISummer16MiniAODv3-PUMoriond17_94X_mcRun2_asymptotic_v3_ext1-v2/MINIAODSIM'
p132
aa(lp133
S'QCD_Pt-20to30_EMEnriched_TuneCUETP8M1_13TeV_pythia8-v2'
p134
aS'QCD_Pt-20to30_EMEnriched_TuneCUETP8M1_13TeV_pythia8/RunIISummer16MiniAODv3-PUMoriond17_94X_mcRun2_asymptotic_v3-v2/MINIAODSIM'
p135
aa(lp136
S'QCD_Pt-30to50_EMEnriched_TuneCUETP8M1_13TeV_pythia8-v2'
p137
aS'QCD_Pt-30to50_EMEnriched_TuneCUETP8M1_13TeV_pythia8/RunIISummer16MiniAODv3-PUMoriond17_94X_mcRun2_asymptotic_v3-v2/MINIAODSIM'
p138
aa(lp139
S'QCD_Pt-30to50_EMEnriched_TuneCUETP8M1_13TeV_pythia8_ext1-v2'
p140
aS'QCD_Pt-30to50_EMEnriched_TuneCUETP8M1_13TeV_pythia8/RunIISummer16MiniAODv3-PUMoriond17_94X_mcRun2_asymptotic_v3_ext1-v2/MINIAODSIM'
p141
aa(lp142
S'QCD_Pt-50to80_EMEnriched_TuneCUETP8M1_13TeV_pythia8-v2'
p143
aS'QCD_Pt-50to80_EMEnriched_TuneCUETP8M1_13TeV_pythia8/RunIISummer16MiniAODv3-PUMoriond17_94X_mcRun2_asymptotic_v3-v2/MINIAODSIM'
p144
aa(lp145
S'QCD_Pt-50to80_EMEnriched_TuneCUETP8M1_13TeV_pythia8_ext1-v2'
p146
aS'QCD_Pt-50to80_EMEnriched_TuneCUETP8M1_13TeV_pythia8/RunIISummer16MiniAODv3-PUMoriond17_94X_mcRun2_asymptotic_v3_ext1-v2/MINIAODSIM'
p147
aa(lp148
S'QCD_Pt-80to120_EMEnriched_TuneCUETP8M1_13TeV_pythia8-v2'
p149
aS'QCD_Pt-80to120_EMEnriched_TuneCUETP8M1_13TeV_pythia8/RunIISummer16MiniAODv3-PUMoriond17_94X_mcRun2_asymptotic_v3-v2/MINIAODSIM'
p150
aa(lp151
S'QCD_Pt-80to120_EMEnriched_TuneCUETP8M1_13TeV_pythia8_ext1-v2'
p152
aS'QCD_Pt-80to120_EMEnriched_TuneCUETP8M1_13TeV_pythia8/RunIISummer16MiniAODv3-PUMoriond17_94X_mcRun2_asymptotic_v3_ext1-v2/MINIAODSIM'
p153
aa(lp154
S'QCD_Pt-120to170_EMEnriched_TuneCUETP8M1_13TeV_pythia8-v2'
p155
aS'QCD_Pt-120to170_EMEnriched_TuneCUETP8M1_13TeV_pythia8/RunIISummer16MiniAODv3-PUMoriond17_94X_mcRun2_asymptotic_v3-v2/MINIAODSIM'
p156
aa(lp157
S'QCD_Pt-120to170_EMEnriched_TuneCUETP8M1_13TeV_pythia8_ext1-v2'
p158
aS'QCD_Pt-120to170_EMEnriched_TuneCUETP8M1_13TeV_pythia8/RunIISummer16MiniAODv3-PUMoriond17_94X_mcRun2_asymptotic_v3_ext1-v2/MINIAODSIM'
p159
aa(lp160
S'QCD_Pt-170to300_EMEnriched_TuneCUETP8M1_13TeV_pythia8-v2'
p161
aS'QCD_Pt-170to300_EMEnriched_TuneCUETP8M1_13TeV_pythia8/RunIISummer16MiniAODv3-PUMoriond17_94X_mcRun2_asymptotic_v3-v2/MINIAODSIM'
p162
aa(lp163
S'QCD_Pt-300toInf_EMEnriched_TuneCUETP8M1_13TeV_pythia8-v2'
p164
aS'QCD_Pt-300toInf_EMEnriched_TuneCUETP8M1_13TeV_pythia8/RunIISummer16MiniAODv3-PUMoriond17_94X_mcRun2_asymptotic_v3-v2/MINIAODSIM'
p165
aa.