(lp0
(lp1
S'DYJetsToLL_M-10to50_TuneCP5_13TeV-madgraphMLM-pythia8RunIIFall17MiniAODv2-PU2017_12Apr2018_94X_mc2017_realistic_v14-v1'
p2
aS'DYJetsToLL_M-10to50_TuneCP5_13TeV-madgraphMLM-pythia8/RunIIFall17MiniAODv2-PU2017_12Apr2018_94X_mc2017_realistic_v14-v1/MINIAODSIM'
p3
aa(lp4
S'DYJetsToLL_M-10to50_TuneCP5_13TeV-madgraphMLM-pythia8RunIIFall17MiniAODv2-PU2017_12Apr2018_94X_mc2017_realistic_v14_ext1-v2'
p5
aS'DYJetsToLL_M-10to50_TuneCP5_13TeV-madgraphMLM-pythia8/RunIIFall17MiniAODv2-PU2017_12Apr2018_94X_mc2017_realistic_v14_ext1-v2/MINIAODSIM'
p6
aa(lp7
S'DYJetsToLL_M-50_TuneCP5_13TeV-amcatnloFXFX-pythia8RunIIFall17MiniAODv2-PU2017_12Apr2018_94X_mc2017_realistic_v14-v1'
p8
aS'DYJetsToLL_M-50_TuneCP5_13TeV-amcatnloFXFX-pythia8/RunIIFall17MiniAODv2-PU2017_12Apr2018_94X_mc2017_realistic_v14-v1/MINIAODSIM'
p9
aa(lp10
S'DYJetsToLL_M-50_TuneCP5_13TeV-amcatnloFXFX-pythia8RunIIFall17MiniAODv2-PU2017_12Apr2018_94X_mc2017_realistic_v14_ext1-v1'
p11
aS'DYJetsToLL_M-50_TuneCP5_13TeV-amcatnloFXFX-pythia8/RunIIFall17MiniAODv2-PU2017_12Apr2018_94X_mc2017_realistic_v14_ext1-v1/MINIAODSIM'
p12
aa(lp13
S'WW_TuneCP5_13TeV-pythia8RunIIFall17MiniAODv2-PU2017_12Apr2018_94X_mc2017_realistic_v14-v1'
p14
aS'WW_TuneCP5_13TeV-pythia8/RunIIFall17MiniAODv2-PU2017_12Apr2018_94X_mc2017_realistic_v14-v1/MINIAODSIM'
p15
aa(lp16
S'WW_TuneCP5_13TeV-pythia8RunIIFall17MiniAODv2-PU2017_12Apr2018_94X_mc2017_realistic_v14-v2'
p17
aS'WW_TuneCP5_13TeV-pythia8/RunIIFall17MiniAODv2-PU2017_12Apr2018_94X_mc2017_realistic_v14-v2/MINIAODSIM'
p18
aa(lp19
S'ZZ_TuneCP5_13TeV-pythia8RunIIFall17MiniAODv2-PU2017_12Apr2018_94X_mc2017_realistic_v14-v1'
p20
aS'ZZ_TuneCP5_13TeV-pythia8/RunIIFall17MiniAODv2-PU2017_12Apr2018_94X_mc2017_realistic_v14-v1/MINIAODSIM'
p21
aa(lp22
S'WZ_TuneCP5_13TeV-pythia8RunIIFall17MiniAODv2-PU2017_12Apr2018_94X_mc2017_realistic_v14-v1'
p23
aS'WZ_TuneCP5_13TeV-pythia8/RunIIFall17MiniAODv2-PU2017_12Apr2018_94X_mc2017_realistic_v14-v1/MINIAODSIM'
p24
aa(lp25
S'TT_TuneCH3_13TeV-powheg-herwig7_testrunRunIIFall17MiniAODv2-PU2017_12Apr2018_94X_mc2017_realistic_v14-v1'
p26
aS'TT_TuneCH3_13TeV-powheg-herwig7_testrun/RunIIFall17MiniAODv2-PU2017_12Apr2018_94X_mc2017_realistic_v14-v1/MINIAODSIM'
p27
aa(lp28
S'TTGJets_TuneCP5_13TeV-amcatnloFXFX-madspin-pythia8RunIIFall17MiniAODv2-PU2017_12Apr2018_94X_mc2017_realistic_v14-v1'
p29
aS'TTGJets_TuneCP5_13TeV-amcatnloFXFX-madspin-pythia8/RunIIFall17MiniAODv2-PU2017_12Apr2018_94X_mc2017_realistic_v14-v1/MINIAODSIM'
p30
aa(lp31
S'TTGJets_TuneCP5_13TeV-amcatnloFXFX-madspin-pythia8RunIIFall17MiniAODv2-PU2017_12Apr2018_94X_mc2017_realistic_v14-v2'
p32
aS'TTGJets_TuneCP5_13TeV-amcatnloFXFX-madspin-pythia8/RunIIFall17MiniAODv2-PU2017_12Apr2018_94X_mc2017_realistic_v14-v2/MINIAODSIM'
p33
aa(lp34
S'TTGJets_TuneCP5_13TeV-amcatnloFXFX-madspin-pythia8RunIIFall17MiniAODv2-PU2017_12Apr2018_94X_mc2017_realistic_v14_ext1-v1'
p35
aS'TTGJets_TuneCP5_13TeV-amcatnloFXFX-madspin-pythia8/RunIIFall17MiniAODv2-PU2017_12Apr2018_94X_mc2017_realistic_v14_ext1-v1/MINIAODSIM'
p36
aa(lp37
S'TTGJets_TuneCP5_13TeV-amcatnloFXFX-madspin-pythia8RunIIFall17MiniAODv2-PU2017_12Apr2018_94X_mc2017_realistic_v14_ext1-v2'
p38
aS'TTGJets_TuneCP5_13TeV-amcatnloFXFX-madspin-pythia8/RunIIFall17MiniAODv2-PU2017_12Apr2018_94X_mc2017_realistic_v14_ext1-v2/MINIAODSIM'
p39
aa(lp40
S'WJetsToLNu_TuneCP5_13TeV-madgraphMLM-pythia8RunIIFall17MiniAODv2-PU2017_12Apr2018_94X_mc2017_realistic_v14-v2'
p41
aS'WJetsToLNu_TuneCP5_13TeV-madgraphMLM-pythia8/RunIIFall17MiniAODv2-PU2017_12Apr2018_94X_mc2017_realistic_v14-v2/MINIAODSIM'
p42
aa(lp43
S'WJetsToLNu_TuneCP5_13TeV-madgraphMLM-pythia8RunIIFall17MiniAODv2-PU2017_12Apr2018_94X_mc2017_realistic_v14_ext1-v2'
p44
aS'WJetsToLNu_TuneCP5_13TeV-madgraphMLM-pythia8/RunIIFall17MiniAODv2-PU2017_12Apr2018_94X_mc2017_realistic_v14_ext1-v2/MINIAODSIM'
p45
aa(lp46
S'ST_t-channel_top_5f_TuneCP5_13TeV-powheg-pythia8RunIIFall17MiniAODv2-PU2017_12Apr2018_94X_mc2017_realistic_v14-v1'
p47
aS'ST_t-channel_top_5f_TuneCP5_13TeV-powheg-pythia8/RunIIFall17MiniAODv2-PU2017_12Apr2018_94X_mc2017_realistic_v14-v1/MINIAODSIM'
p48
aa(lp49
S'ST_tW_top_5f_NoFullyHadronicDecays_TuneCP5_13TeV-powheg-pythia8RunIIFall17MiniAODv2-PU2017_12Apr2018_94X_mc2017_realistic_v14-v1'
p50
aS'ST_tW_top_5f_NoFullyHadronicDecays_TuneCP5_13TeV-powheg-pythia8/RunIIFall17MiniAODv2-PU2017_12Apr2018_94X_mc2017_realistic_v14-v1/MINIAODSIM'
p51
aa(lp52
S'ST_tW_top_5f_inclusiveDecays_TuneCP5_13TeV-powheg-pythia8RunIIFall17MiniAODv2-PU2017_12Apr2018_94X_mc2017_realistic_v14-v1'
p53
aS'ST_tW_top_5f_inclusiveDecays_TuneCP5_13TeV-powheg-pythia8/RunIIFall17MiniAODv2-PU2017_12Apr2018_94X_mc2017_realistic_v14-v1/MINIAODSIM'
p54
aa(lp55
S'ST_tW_top_5f_inclusiveDecays_TuneCP5_13TeV-powheg-pythia8RunIIFall17MiniAODv2-PU2017_12Apr2018_94X_mc2017_realistic_v14-v2'
p56
aS'ST_tW_top_5f_inclusiveDecays_TuneCP5_13TeV-powheg-pythia8/RunIIFall17MiniAODv2-PU2017_12Apr2018_94X_mc2017_realistic_v14-v2/MINIAODSIM'
p57
aa(lp58
S'ST_tW_antitop_5f_NoFullyHadronicDecays_TuneCP5_13TeV-powheg-pythia8RunIIFall17MiniAODv2-PU2017_12Apr2018_94X_mc2017_realistic_v14-v1'
p59
aS'ST_tW_antitop_5f_NoFullyHadronicDecays_TuneCP5_13TeV-powheg-pythia8/RunIIFall17MiniAODv2-PU2017_12Apr2018_94X_mc2017_realistic_v14-v1/MINIAODSIM'
p60
aa(lp61
S'ST_tW_antitop_5f_NoFullyHadronicDecays_TuneCP5_13TeV-powheg-pythia8RunIIFall17MiniAODv2-PU2017_12Apr2018_94X_mc2017_realistic_v14-v2'
p62
aS'ST_tW_antitop_5f_NoFullyHadronicDecays_TuneCP5_13TeV-powheg-pythia8/RunIIFall17MiniAODv2-PU2017_12Apr2018_94X_mc2017_realistic_v14-v2/MINIAODSIM'
p63
aa(lp64
S'ST_tW_antitop_5f_NoFullyHadronicDecays_TuneCP5_13TeV-powheg-pythia8RunIIFall17MiniAODv2-PU2017_12Apr2018_94X_mc2017_realistic_v14_ext1-v1'
p65
aS'ST_tW_antitop_5f_NoFullyHadronicDecays_TuneCP5_13TeV-powheg-pythia8/RunIIFall17MiniAODv2-PU2017_12Apr2018_94X_mc2017_realistic_v14_ext1-v1/MINIAODSIM'
p66
aa(lp67
S'ST_tW_antitop_5f_inclusiveDecays_TuneCP5_13TeV-powheg-pythia8RunIIFall17MiniAODv2-PU2017_12Apr2018_94X_mc2017_realistic_v14-v1'
p68
aS'ST_tW_antitop_5f_inclusiveDecays_TuneCP5_13TeV-powheg-pythia8/RunIIFall17MiniAODv2-PU2017_12Apr2018_94X_mc2017_realistic_v14-v1/MINIAODSIM'
p69
aa(lp70
S'ST_tW_antitop_5f_inclusiveDecays_TuneCP5_13TeV-powheg-pythia8RunIIFall17MiniAODv2-PU2017_12Apr2018_94X_mc2017_realistic_v14-v2'
p71
aS'ST_tW_antitop_5f_inclusiveDecays_TuneCP5_13TeV-powheg-pythia8/RunIIFall17MiniAODv2-PU2017_12Apr2018_94X_mc2017_realistic_v14-v2/MINIAODSIM'
p72
aa(lp73
S'QCD_Pt-1000toInf_MuEnrichedPt5_TuneCP5_13TeV_pythia8RunIIFall17MiniAODv2-PU2017_12Apr2018_94X_mc2017_realistic_v14-v1'
p74
aS'QCD_Pt-1000toInf_MuEnrichedPt5_TuneCP5_13TeV_pythia8/RunIIFall17MiniAODv2-PU2017_12Apr2018_94X_mc2017_realistic_v14-v1/MINIAODSIM'
p75
aa(lp76
S'QCD_Pt-120to170_MuEnrichedPt5_TuneCP5_13TeV_pythia8RunIIFall17MiniAODv2-PU2017_12Apr2018_94X_mc2017_realistic_v14-v1'
p77
aS'QCD_Pt-120to170_MuEnrichedPt5_TuneCP5_13TeV_pythia8/RunIIFall17MiniAODv2-PU2017_12Apr2018_94X_mc2017_realistic_v14-v1/MINIAODSIM'
p78
aa(lp79
S'QCD_Pt-15to20_MuEnrichedPt5_TuneCP5_13TeV_pythia8RunIIFall17MiniAODv2-PU2017_12Apr2018_94X_mc2017_realistic_v14-v1'
p80
aS'QCD_Pt-15to20_MuEnrichedPt5_TuneCP5_13TeV_pythia8/RunIIFall17MiniAODv2-PU2017_12Apr2018_94X_mc2017_realistic_v14-v1/MINIAODSIM'
p81
aa(lp82
S'QCD_Pt-170to300_MuEnrichedPt5_TuneCP5_13TeV_pythia8RunIIFall17MiniAODv2-PU2017_12Apr2018_94X_mc2017_realistic_v14-v1'
p83
aS'QCD_Pt-170to300_MuEnrichedPt5_TuneCP5_13TeV_pythia8/RunIIFall17MiniAODv2-PU2017_12Apr2018_94X_mc2017_realistic_v14-v1/MINIAODSIM'
p84
aa(lp85
S'QCD_Pt-20to30_MuEnrichedPt5_TuneCP5_13TeV_pythia8RunIIFall17MiniAODv2-PU2017_12Apr2018_94X_mc2017_realistic_v14-v1'
p86
aS'QCD_Pt-20to30_MuEnrichedPt5_TuneCP5_13TeV_pythia8/RunIIFall17MiniAODv2-PU2017_12Apr2018_94X_mc2017_realistic_v14-v1/MINIAODSIM'
p87
aa(lp88
S'QCD_Pt-20toInf_MuEnrichedPt15_TuneCP5_13TeV_pythia8RunIIFall17MiniAODv2-PU2017RECOSIMstep_12Apr2018_94X_mc2017_realistic_v14-v1'
p89
aS'QCD_Pt-20toInf_MuEnrichedPt15_TuneCP5_13TeV_pythia8/RunIIFall17MiniAODv2-PU2017RECOSIMstep_12Apr2018_94X_mc2017_realistic_v14-v1/MINIAODSIM'
p90
aa(lp91
S'QCD_Pt-300to470_MuEnrichedPt5_TuneCP5_13TeV_pythia8RunIIFall17MiniAODv2-PU2017_12Apr2018_94X_mc2017_realistic_v14-v1'
p92
aS'QCD_Pt-300to470_MuEnrichedPt5_TuneCP5_13TeV_pythia8/RunIIFall17MiniAODv2-PU2017_12Apr2018_94X_mc2017_realistic_v14-v1/MINIAODSIM'
p93
aa(lp94
S'QCD_Pt-30to50_MuEnrichedPt5_TuneCP5_13TeV_pythia8RunIIFall17MiniAODv2-PU2017_12Apr2018_94X_mc2017_realistic_v14-v1'
p95
aS'QCD_Pt-30to50_MuEnrichedPt5_TuneCP5_13TeV_pythia8/RunIIFall17MiniAODv2-PU2017_12Apr2018_94X_mc2017_realistic_v14-v1/MINIAODSIM'
p96
aa(lp97
S'QCD_Pt-470to600_MuEnrichedPt5_TuneCP5_13TeV_pythia8RunIIFall17MiniAODv2-PU2017_12Apr2018_94X_mc2017_realistic_v14-v1'
p98
aS'QCD_Pt-470to600_MuEnrichedPt5_TuneCP5_13TeV_pythia8/RunIIFall17MiniAODv2-PU2017_12Apr2018_94X_mc2017_realistic_v14-v1/MINIAODSIM'
p99
aa(lp100
S'QCD_Pt-50to80_MuEnrichedPt5_TuneCP5_13TeV_pythia8RunIIFall17MiniAODv2-PU2017_12Apr2018_94X_mc2017_realistic_v14-v1'
p101
aS'QCD_Pt-50to80_MuEnrichedPt5_TuneCP5_13TeV_pythia8/RunIIFall17MiniAODv2-PU2017_12Apr2018_94X_mc2017_realistic_v14-v1/MINIAODSIM'
p102
aa(lp103
S'QCD_Pt-600to800_MuEnrichedPt5_TuneCP5_13TeV_pythia8RunIIFall17MiniAODv2-PU2017_12Apr2018_94X_mc2017_realistic_v14-v1'
p104
aS'QCD_Pt-600to800_MuEnrichedPt5_TuneCP5_13TeV_pythia8/RunIIFall17MiniAODv2-PU2017_12Apr2018_94X_mc2017_realistic_v14-v1/MINIAODSIM'
p105
aa(lp106
S'QCD_Pt-800to1000_MuEnrichedPt5_TuneCP5_13TeV_pythia8RunIIFall17MiniAODv2-PU2017_12Apr2018_94X_mc2017_realistic_v14-v1'
p107
aS'QCD_Pt-800to1000_MuEnrichedPt5_TuneCP5_13TeV_pythia8/RunIIFall17MiniAODv2-PU2017_12Apr2018_94X_mc2017_realistic_v14-v1/MINIAODSIM'
p108
aa(lp109
S'QCD_Pt-80to120_MuEnrichedPt5_TuneCP5_13TeV_pythia8RunIIFall17MiniAODv2-PU2017_12Apr2018_94X_mc2017_realistic_v14-v1'
p110
aS'QCD_Pt-80to120_MuEnrichedPt5_TuneCP5_13TeV_pythia8/RunIIFall17MiniAODv2-PU2017_12Apr2018_94X_mc2017_realistic_v14-v1/MINIAODSIM'
p111
aa(lp112
S'QCD_Pt-120to170_EMEnriched_TuneCP5_13TeV_pythia8RunIIFall17MiniAODv2-PU2017_12Apr2018_94X_mc2017_realistic_v14-v2'
p113
aS'QCD_Pt-120to170_EMEnriched_TuneCP5_13TeV_pythia8/RunIIFall17MiniAODv2-PU2017_12Apr2018_94X_mc2017_realistic_v14-v2/MINIAODSIM'
p114
aa(lp115
S'QCD_Pt-15to20_EMEnriched_TuneCP5_13TeV_pythia8RunIIFall17MiniAODv2-PU2017_12Apr2018_94X_mc2017_realistic_v14-v1'
p116
aS'QCD_Pt-15to20_EMEnriched_TuneCP5_13TeV_pythia8/RunIIFall17MiniAODv2-PU2017_12Apr2018_94X_mc2017_realistic_v14-v1/MINIAODSIM'
p117
aa(lp118
S'QCD_Pt-20to30_EMEnriched_TuneCP5_13TeV_pythia8RunIIFall17MiniAODv2-PU2017_12Apr2018_94X_mc2017_realistic_v14-v1'
p119
aS'QCD_Pt-20to30_EMEnriched_TuneCP5_13TeV_pythia8/RunIIFall17MiniAODv2-PU2017_12Apr2018_94X_mc2017_realistic_v14-v1/MINIAODSIM'
p120
aa(lp121
S'QCD_Pt-300toInf_EMEnriched_TuneCP5_13TeV_pythia8RunIIFall17MiniAODv2-PU2017_12Apr2018_94X_mc2017_realistic_v14-v1'
p122
aS'QCD_Pt-300toInf_EMEnriched_TuneCP5_13TeV_pythia8/RunIIFall17MiniAODv2-PU2017_12Apr2018_94X_mc2017_realistic_v14-v1/MINIAODSIM'
p123
aa(lp124
S'QCD_Pt-30to40_DoubleEMEnriched_MGG-80toInf_TuneCP5_13TeV_Pythia8RunIIFall17MiniAODv2-PU2017_12Apr2018_94X_mc2017_realistic_v14-v1'
p125
aS'QCD_Pt-30to40_DoubleEMEnriched_MGG-80toInf_TuneCP5_13TeV_Pythia8/RunIIFall17MiniAODv2-PU2017_12Apr2018_94X_mc2017_realistic_v14-v1/MINIAODSIM'
p126
aa(lp127
S'QCD_Pt-30to50_EMEnriched_TuneCP5_13TeV_pythia8RunIIFall17MiniAODv2-PU2017_12Apr2018_94X_mc2017_realistic_v14-v1'
p128
aS'QCD_Pt-30to50_EMEnriched_TuneCP5_13TeV_pythia8/RunIIFall17MiniAODv2-PU2017_12Apr2018_94X_mc2017_realistic_v14-v1/MINIAODSIM'
p129
aa(lp130
S'QCD_Pt-30toInf_DoubleEMEnriched_MGG-40to80_TuneCP5_13TeV_Pythia8RunIIFall17MiniAODv2-PU2017_12Apr2018_94X_mc2017_realistic_v14-v1'
p131
aS'QCD_Pt-30toInf_DoubleEMEnriched_MGG-40to80_TuneCP5_13TeV_Pythia8/RunIIFall17MiniAODv2-PU2017_12Apr2018_94X_mc2017_realistic_v14-v1/MINIAODSIM'
p132
aa(lp133
S'QCD_Pt-40toInf_DoubleEMEnriched_MGG-80toInf_TuneCP5_13TeV_Pythia8RunIIFall17MiniAODv2-PU2017_12Apr2018_94X_mc2017_realistic_v14-v1'
p134
aS'QCD_Pt-40toInf_DoubleEMEnriched_MGG-80toInf_TuneCP5_13TeV_Pythia8/RunIIFall17MiniAODv2-PU2017_12Apr2018_94X_mc2017_realistic_v14-v1/MINIAODSIM'
p135
aa(lp136
S'QCD_Pt-50to80_EMEnriched_TuneCP5_13TeV_pythia8RunIIFall17MiniAODv2-PU2017_12Apr2018_94X_mc2017_realistic_v14-v1'
p137
aS'QCD_Pt-50to80_EMEnriched_TuneCP5_13TeV_pythia8/RunIIFall17MiniAODv2-PU2017_12Apr2018_94X_mc2017_realistic_v14-v1/MINIAODSIM'
p138
aa(lp139
S'QCD_Pt-80to120_EMEnriched_TuneCP5_13TeV_pythia8RunIIFall17MiniAODv2-PU2017_12Apr2018_94X_mc2017_realistic_v14-v1'
p140
aS'QCD_Pt-80to120_EMEnriched_TuneCP5_13TeV_pythia8/RunIIFall17MiniAODv2-PU2017_12Apr2018_94X_mc2017_realistic_v14-v1/MINIAODSIM'
p141
aa.