(dp0
S'QCD_Pt-1000toInf_MuEnrichedPt5_TuneCP5_13TeV_pythia8RunIIFall17MiniAODv2-PU2017_12Apr2018_94X_mc2017_realistic_v14-v1'
p1
(dp2
S'prepid'
p3
S'BTV-RunIIFall17MiniAODv2-00066'
p4
sS'luminosity'
p5
S'1111806.05'
p6
sS'dataset'
p7
S'QCD_Pt-1000toInf_MuEnrichedPt5_TuneCP5_13TeV_pythia8/RunIIFall17MiniAODv2-PU2017_12Apr2018_94X_mc2017_realistic_v14-v1/MINIAODSIM'
p8
sS'crosssection'
p9
S'10.4305'
p10
sS'requested_events'
p11
S'11646572'
p12
sS'completed_events'
p13
S'11596693'
p14
ssS'ST_tW_antitop_5f_NoFullyHadronicDecays_TuneCP5_13TeV-powheg-pythia8RunIIFall17MiniAODv2-PU2017_12Apr2018_94X_mc2017_realistic_v14-v1'
p15
(dp16
g3
S'TOP-RunIIFall17MiniAODv2-00016'
p17
sg5
S'153973.933'
p18
sg7
S'ST_tW_antitop_5f_NoFullyHadronicDecays_TuneCP5_13TeV-powheg-pythia8/RunIIFall17MiniAODv2-PU2017_12Apr2018_94X_mc2017_realistic_v14-v1/MINIAODSIM'
p19
sg9
S'34.91'
p20
sg11
S'5375230'
p21
sg13
S'5375230'
p22
ssS'ST_tW_antitop_5f_NoFullyHadronicDecays_TuneCP5_13TeV-powheg-pythia8RunIIFall17MiniAODv2-PU2017_12Apr2018_94X_mc2017_realistic_v14-v2'
p23
(dp24
g3
S'TOP-RunIIFall17MiniAODv2-00159'
p25
sg5
S'161430.507'
p26
sg7
S'ST_tW_antitop_5f_NoFullyHadronicDecays_TuneCP5_13TeV-powheg-pythia8/RunIIFall17MiniAODv2-PU2017_12Apr2018_94X_mc2017_realistic_v14-v2/MINIAODSIM'
p27
sg9
S'34.91'
p28
sg11
S'5635539'
p29
sg13
S'5635539'
p30
ssS'QCD_Pt-800to1000_MuEnrichedPt5_TuneCP5_13TeV_pythia8RunIIFall17MiniAODv2-PU2017_12Apr2018_94X_mc2017_realistic_v14-v1'
p31
(dp32
g3
S'BTV-RunIIFall17MiniAODv2-00071'
p33
sg5
S'529065.4619'
p34
sg7
S'QCD_Pt-800to1000_MuEnrichedPt5_TuneCP5_13TeV_pythia8/RunIIFall17MiniAODv2-PU2017_12Apr2018_94X_mc2017_realistic_v14-v1/MINIAODSIM'
p35
sg9
S'32.3486'
p36
sg11
S'17128313'
p37
sg13
S'17114527'
p38
ssS'DYJetsToLL_M-10to50_TuneCP5_13TeV-madgraphMLM-pythia8RunIIFall17MiniAODv2-PU2017_12Apr2018_94X_mc2017_realistic_v14_ext1-v2'
p39
(dp40
g3
S'BTV-RunIIFall17MiniAODv2-00068'
p41
sg5
S'2471.052438'
p42
sg7
S'DYJetsToLL_M-10to50_TuneCP5_13TeV-madgraphMLM-pythia8/RunIIFall17MiniAODv2-PU2017_12Apr2018_94X_mc2017_realistic_v14_ext1-v2/MINIAODSIM'
p43
sg9
S'16000'
p44
sg11
S'39536839'
p45
sg13
S'39536839'
p46
ssS'QCD_Pt-300toInf_EMEnriched_TuneCP5_13TeV_pythia8RunIIFall17MiniAODv2-PU2017_12Apr2018_94X_mc2017_realistic_v14-v1'
p47
(dp48
g3
S'BTV-RunIIFall17MiniAODv2-00031'
p49
sg5
S'000"'
p50
sg7
S'QCD_Pt-300toInf_EMEnriched_TuneCP5_13TeV_pythia8/RunIIFall17MiniAODv2-PU2017_12Apr2018_94X_mc2017_realistic_v14-v1/MINIAODSIM'
p51
sg9
S'"9'
p52
sg11
S'2898084'
p53
sg13
S'2874295'
p54
ssS'WJetsToLNu_TuneCP5_13TeV-madgraphMLM-pythia8RunIIFall17MiniAODv2-PU2017_12Apr2018_94X_mc2017_realistic_v14-v2'
p55
(dp56
g3
S'BTV-RunIIFall17MiniAODv2-00053'
p57
sg5
S'590.59475'
p58
sg7
S'WJetsToLNu_TuneCP5_13TeV-madgraphMLM-pythia8/RunIIFall17MiniAODv2-PU2017_12Apr2018_94X_mc2017_realistic_v14-v2/MINIAODSIM'
p59
sg9
S'56000'
p60
sg11
S'30000000'
p61
sg13
S'33073306'
p62
ssS'QCD_Pt-30to40_DoubleEMEnriched_MGG-80toInf_TuneCP5_13TeV_Pythia8RunIIFall17MiniAODv2-PU2017_12Apr2018_94X_mc2017_realistic_v14-v1'
p63
(dp64
g3
S'HIG-RunIIFall17MiniAODv2-00004'
p65
sg5
S'0.1358290833'
p66
sg7
S'QCD_Pt-30to40_DoubleEMEnriched_MGG-80toInf_TuneCP5_13TeV_Pythia8/RunIIFall17MiniAODv2-PU2017_12Apr2018_94X_mc2017_realistic_v14-v1/MINIAODSIM'
p67
sg9
S'108000000'
p68
sg11
S'14669541'
p69
sg13
S'14669541'
p70
ssS'QCD_Pt-170to300_MuEnrichedPt5_TuneCP5_13TeV_pythia8RunIIFall17MiniAODv2-PU2017_12Apr2018_94X_mc2017_realistic_v14-v1'
p71
(dp72
g3
S'BTV-RunIIFall17MiniAODv2-00011'
p73
sg5
S'390.9455377'
p74
sg7
S'QCD_Pt-170to300_MuEnrichedPt5_TuneCP5_13TeV_pythia8/RunIIFall17MiniAODv2-PU2017_12Apr2018_94X_mc2017_realistic_v14-v1/MINIAODSIM'
p75
sg9
S'118100'
p76
sg11
S'46548252'
p77
sg13
S'46170668'
p78
ssS'DYJetsToLL_M-50_TuneCP5_13TeV-amcatnloFXFX-pythia8RunIIFall17MiniAODv2-PU2017_12Apr2018_94X_mc2017_realistic_v14_ext1-v1'
p79
(dp80
g3
S'HIG-RunIIFall17MiniAODv2-00355'
p81
sg5
S'25394.77872'
p82
sg7
S'DYJetsToLL_M-50_TuneCP5_13TeV-amcatnloFXFX-pythia8/RunIIFall17MiniAODv2-PU2017_12Apr2018_94X_mc2017_realistic_v14_ext1-v1/MINIAODSIM'
p83
sg9
S'7181'
p84
sg11
S'188125852'
p85
sg13
S'182359906'
p86
ssS'WW_TuneCP5_13TeV-pythia8RunIIFall17MiniAODv2-PU2017_12Apr2018_94X_mc2017_realistic_v14-v1'
p87
(dp88
g3
S'B2G-RunIIFall17MiniAODv2-00001'
p89
sg5
S'123263.6925'
p90
sg7
S'WW_TuneCP5_13TeV-pythia8/RunIIFall17MiniAODv2-PU2017_12Apr2018_94X_mc2017_realistic_v14-v1/MINIAODSIM'
p91
sg9
S'63.21'
p92
sg11
S'7791498'
p93
sg13
S'7791498'
p94
ssS'QCD_Pt-40toInf_DoubleEMEnriched_MGG-80toInf_TuneCP5_13TeV_Pythia8RunIIFall17MiniAODv2-PU2017_12Apr2018_94X_mc2017_realistic_v14-v1'
p95
(dp96
g3
S'HIG-RunIIFall17MiniAODv2-00006'
p97
sg5
S'0.3810427568'
p98
sg7
S'QCD_Pt-40toInf_DoubleEMEnriched_MGG-80toInf_TuneCP5_13TeV_Pythia8/RunIIFall17MiniAODv2-PU2017_12Apr2018_94X_mc2017_realistic_v14-v1/MINIAODSIM'
p99
sg9
S'54120000'
p100
sg11
S'20622034'
p101
sg13
S'20622034'
p102
ssS'TTTo2L2Nu_TuneCP5_13TeV-powheg-pythia8RunIIFall17MiniAODv2-PU2017_12Apr2018_94X_mc2017_realistic_v14-v1'
p103
(dp104
g3
S'TOP-RunIIFall17MiniAODv2-00002'
p105
sg5
S'120743.0791'
p106
sg7
S'TTTo2L2Nu_TuneCP5_13TeV-powheg-pythia8/RunIIFall17MiniAODv2-PU2017_12Apr2018_94X_mc2017_realistic_v14-v1/MINIAODSIM'
p107
sg9
S'72.1'
p108
sg11
S'8705576'
p109
sg13
S'8705576'
p110
ssS'TTToHadronic_TuneCP5_13TeV-powheg-pythia8RunIIFall17MiniAODv2-PU2017_12Apr2018_94X_mc2017_realistic_v14-v1'
p111
(dp112
g3
S'TOP-RunIIFall17MiniAODv2-00004'
p113
sg5
S'134940.8856'
p114
sg7
S'TTToHadronic_TuneCP5_13TeV-powheg-pythia8/RunIIFall17MiniAODv2-PU2017_12Apr2018_94X_mc2017_realistic_v14-v1/MINIAODSIM'
p115
sg9
S'313.9'
p116
sg11
S'42756552'
p117
sg13
S'42357944'
p118
ssS'ST_tW_top_5f_inclusiveDecays_TuneCP5_13TeV-powheg-pythia8RunIIFall17MiniAODv2-PU2017_12Apr2018_94X_mc2017_realistic_v14-v2'
p119
(dp120
g3
S'TOP-RunIIFall17MiniAODv2-00171'
p121
sg5
S'223265.1389'
p122
sg7
S'ST_tW_top_5f_inclusiveDecays_TuneCP5_13TeV-powheg-pythia8/RunIIFall17MiniAODv2-PU2017_12Apr2018_94X_mc2017_realistic_v14-v2/MINIAODSIM'
p123
sg9
S'34.91'
p124
sg11
S'7794186'
p125
sg13
S'7794186'
p126
ssS'ST_tW_top_5f_inclusiveDecays_TuneCP5_13TeV-powheg-pythia8RunIIFall17MiniAODv2-PU2017_12Apr2018_94X_mc2017_realistic_v14-v1'
p127
(dp128
g3
S'TOP-RunIIFall17MiniAODv2-00013'
p129
sg5
S'217176.2819'
p130
sg7
S'ST_tW_top_5f_inclusiveDecays_TuneCP5_13TeV-powheg-pythia8/RunIIFall17MiniAODv2-PU2017_12Apr2018_94X_mc2017_realistic_v14-v1/MINIAODSIM'
p131
sg9
S'34.91'
p132
sg11
S'7581624'
p133
sg13
S'7581624'
p134
ssS'QCD_Pt-120to170_EMEnriched_TuneCP5_13TeV_pythia8RunIIFall17MiniAODv2-PU2017_12Apr2018_94X_mc2017_realistic_v14-v2'
p135
(dp136
g3
S'EGM-RunIIFall17MiniAODv2-00009'
p137
sg5
S'20.90622882'
p138
sg7
S'QCD_Pt-120to170_EMEnriched_TuneCP5_13TeV_pythia8/RunIIFall17MiniAODv2-PU2017_12Apr2018_94X_mc2017_realistic_v14-v2/MINIAODSIM'
p139
sg9
S'407300'
p140
sg11
S'8801883'
p141
sg13
S'8515107'
p142
ssS'QCD_Pt-300to470_MuEnrichedPt5_TuneCP5_13TeV_pythia8RunIIFall17MiniAODv2-PU2017_12Apr2018_94X_mc2017_realistic_v14-v1'
p143
(dp144
g3
S'BTV-RunIIFall17MiniAODv2-00065'
p145
sg5
S'2269.080784'
p146
sg7
S'QCD_Pt-300to470_MuEnrichedPt5_TuneCP5_13TeV_pythia8/RunIIFall17MiniAODv2-PU2017_12Apr2018_94X_mc2017_realistic_v14-v1/MINIAODSIM'
p147
sg9
S'7820.25'
p148
sg11
S'17780848'
p149
sg13
S'17744779'
p150
ssS'ZZ_TuneCP5_13TeV-pythia8RunIIFall17MiniAODv2-PU2017_12Apr2018_94X_mc2017_realistic_v14-v1'
p151
(dp152
g3
S'BTV-RunIIFall17MiniAODv2-00032'
p153
sg5
S'188931.0078'
p154
sg7
S'ZZ_TuneCP5_13TeV-pythia8/RunIIFall17MiniAODv2-PU2017_12Apr2018_94X_mc2017_realistic_v14-v1/MINIAODSIM'
p155
sg9
S'10.32'
p156
sg11
S'1949768'
p157
sg13
S'1949768'
p158
ssS'QCD_Pt-80to120_MuEnrichedPt5_TuneCP5_13TeV_pythia8RunIIFall17MiniAODv2-PU2017_12Apr2018_94X_mc2017_realistic_v14-v1'
p159
(dp160
g3
S'BTV-RunIIFall17MiniAODv2-00009'
p161
sg5
S'8.417449312'
p162
sg7
S'QCD_Pt-80to120_MuEnrichedPt5_TuneCP5_13TeV_pythia8/RunIIFall17MiniAODv2-PU2017_12Apr2018_94X_mc2017_realistic_v14-v1/MINIAODSIM'
p163
sg9
S'2762000'
p164
sg11
S'23248995'
p165
sg13
S'23248995'
p166
ssS'TTGJets_TuneCP5_13TeV-amcatnloFXFX-madspin-pythia8RunIIFall17MiniAODv2-PU2017_12Apr2018_94X_mc2017_realistic_v14_ext1-v1'
p167
(dp168
g3
S'SUS-RunIIFall17MiniAODv2-00032'
p169
sg5
S'2175560.389'
p170
sg7
S'TTGJets_TuneCP5_13TeV-amcatnloFXFX-madspin-pythia8/RunIIFall17MiniAODv2-PU2017_12Apr2018_94X_mc2017_realistic_v14_ext1-v1/MINIAODSIM'
p171
sg9
S'4.322'
p172
sg11
S'9426732'
p173
sg13
S'9402772'
p174
ssS'QCD_Pt-20toInf_MuEnrichedPt15_TuneCP5_13TeV_pythia8RunIIFall17MiniAODv2-PU2017RECOSIMstep_12Apr2018_94X_mc2017_realistic_v14-v1'
p175
(dp176
g3
S'MUO-RunIIFall17MiniAODv2-00004'
p177
sg5
S'0.0302502581'
p178
sg7
S'QCD_Pt-20toInf_MuEnrichedPt15_TuneCP5_13TeV_pythia8/RunIIFall17MiniAODv2-PU2017RECOSIMstep_12Apr2018_94X_mc2017_realistic_v14-v1/MINIAODSIM'
p179
sg9
S'720648000'
p180
sg11
S'21833984'
p181
sg13
S'21799788'
p182
ssS'QCD_Pt-50to80_EMEnriched_TuneCP5_13TeV_pythia8RunIIFall17MiniAODv2-PU2017_12Apr2018_94X_mc2017_realistic_v14-v1'
p183
(dp184
g3
S'EGM-RunIIFall17MiniAODv2-00004'
p185
sg5
S'0.6681853316'
p186
sg7
S'QCD_Pt-50to80_EMEnriched_TuneCP5_13TeV_pythia8/RunIIFall17MiniAODv2-PU2017_12Apr2018_94X_mc2017_realistic_v14-v1/MINIAODSIM'
p187
sg9
S'15680000'
p188
sg11
S'10689785'
p189
sg13
S'10477146'
p190
ssS'QCD_Pt-15to20_EMEnriched_TuneCP5_13TeV_pythia8RunIIFall17MiniAODv2-PU2017_12Apr2018_94X_mc2017_realistic_v14-v1'
p191
(dp192
g3
S'EGM-RunIIFall17MiniAODv2-00001'
p193
sg5
S'0.01333240609'
p194
sg7
S'QCD_Pt-15to20_EMEnriched_TuneCP5_13TeV_pythia8/RunIIFall17MiniAODv2-PU2017_12Apr2018_94X_mc2017_realistic_v14-v1/MINIAODSIM'
p195
sg9
S'841200000'
p196
sg11
S'11215220'
p197
sg13
S'11215220'
p198
ssS'QCD_Pt-50to80_MuEnrichedPt5_TuneCP5_13TeV_pythia8RunIIFall17MiniAODv2-PU2017_12Apr2018_94X_mc2017_realistic_v14-v1'
p199
(dp200
g3
S'BTV-RunIIFall17MiniAODv2-00008'
p201
sg5
S'1.240650155'
p202
sg7
S'QCD_Pt-50to80_MuEnrichedPt5_TuneCP5_13TeV_pythia8/RunIIFall17MiniAODv2-PU2017_12Apr2018_94X_mc2017_realistic_v14-v1/MINIAODSIM'
p203
sg9
S'19400000'
p204
sg11
S'24092778'
p205
sg13
S'24068613'
p206
ssS'QCD_Pt-15to20_MuEnrichedPt5_TuneCP5_13TeV_pythia8RunIIFall17MiniAODv2-PU2017_12Apr2018_94X_mc2017_realistic_v14-v1'
p207
(dp208
g3
S'BTV-RunIIFall17MiniAODv2-00017'
p209
sg5
S'0.004625022889'
p210
sg7
S'QCD_Pt-15to20_MuEnrichedPt5_TuneCP5_13TeV_pythia8/RunIIFall17MiniAODv2-PU2017_12Apr2018_94X_mc2017_realistic_v14-v1/MINIAODSIM'
p211
sg9
S'1267000000'
p212
sg11
S'5859904'
p213
sg13
S'5859904'
p214
ssS'WJetsToLNu_TuneCP5_13TeV-madgraphMLM-pythia8RunIIFall17MiniAODv2-PU2017_12Apr2018_94X_mc2017_realistic_v14_ext1-v2'
p215
(dp216
g3
S'HIG-RunIIFall17MiniAODv2-01271'
p217
sg5
S'367.8552013'
p218
sg7
S'WJetsToLNu_TuneCP5_13TeV-madgraphMLM-pythia8/RunIIFall17MiniAODv2-PU2017_12Apr2018_94X_mc2017_realistic_v14_ext1-v2/MINIAODSIM'
p219
sg9
S'121700'
p220
sg11
S'50000000'
p221
sg13
S'44767978'
p222
ssS'TTGJets_TuneCP5_13TeV-amcatnloFXFX-madspin-pythia8RunIIFall17MiniAODv2-PU2017_12Apr2018_94X_mc2017_realistic_v14-v2'
p223
(dp224
g3
S'SUS-RunIIFall17MiniAODv2-00054'
p225
sg5
S'1124241.323'
p226
sg7
S'TTGJets_TuneCP5_13TeV-amcatnloFXFX-madspin-pythia8/RunIIFall17MiniAODv2-PU2017_12Apr2018_94X_mc2017_realistic_v14-v2/MINIAODSIM'
p227
sg9
S'4.322'
p228
sg11
S'4858971'
p229
sg13
S'4858971'
p230
ssS'DYJetsToLL_M-10to50_TuneCP5_13TeV-madgraphMLM-pythia8RunIIFall17MiniAODv2-PU2017_12Apr2018_94X_mc2017_realistic_v14-v1'
p231
(dp232
g3
S'BTV-RunIIFall17MiniAODv2-00054'
p233
sg5
S'2470.076875'
p234
sg7
S'DYJetsToLL_M-10to50_TuneCP5_13TeV-madgraphMLM-pythia8/RunIIFall17MiniAODv2-PU2017_12Apr2018_94X_mc2017_realistic_v14-v1/MINIAODSIM'
p235
sg9
S'16000'
p236
sg11
S'39521230'
p237
sg13
S'39521230'
p238
ssS'WZ_TuneCP5_13TeV-pythia8RunIIFall17MiniAODv2-PU2017_12Apr2018_94X_mc2017_realistic_v14-v1'
p239
(dp240
g3
S'B2G-RunIIFall17MiniAODv2-00002'
p241
sg5
S'172157.3181'
p242
sg7
S'WZ_TuneCP5_13TeV-pythia8/RunIIFall17MiniAODv2-PU2017_12Apr2018_94X_mc2017_realistic_v14-v1/MINIAODSIM'
p243
sg9
S'22.82'
p244
sg11
S'3928630'
p245
sg13
S'3928630'
p246
ssS'ST_t-channel_top_5f_TuneCP5_13TeV-powheg-pythia8RunIIFall17MiniAODv2-PU2017_12Apr2018_94X_mc2017_realistic_v14-v1'
p247
(dp248
g3
S'TOP-RunIIFall17MiniAODv2-00019'
p249
sg5
S'49732.18045'
p250
sg7
S'ST_t-channel_top_5f_TuneCP5_13TeV-powheg-pythia8/RunIIFall17MiniAODv2-PU2017_12Apr2018_94X_mc2017_realistic_v14-v1/MINIAODSIM'
p251
sg9
S'119.7'
p252
sg11
S'5952942'
p253
sg13
S'5952942'
p254
ssS'QCD_Pt-120to170_MuEnrichedPt5_TuneCP5_13TeV_pythia8RunIIFall17MiniAODv2-PU2017_12Apr2018_94X_mc2017_realistic_v14-v1'
p255
(dp256
g3
S'BTV-RunIIFall17MiniAODv2-00010'
p257
sg5
S'43.32606465'
p258
sg7
S'QCD_Pt-120to170_MuEnrichedPt5_TuneCP5_13TeV_pythia8/RunIIFall17MiniAODv2-PU2017_12Apr2018_94X_mc2017_realistic_v14-v1/MINIAODSIM'
p259
sg9
S'479500'
p260
sg11
S'20821535'
p261
sg13
S'20774848'
p262
ssS'DYJetsToLL_M-50_TuneCP5_13TeV-amcatnloFXFX-pythia8RunIIFall17MiniAODv2-PU2017_12Apr2018_94X_mc2017_realistic_v14-v1'
p263
(dp264
g3
S'HIG-RunIIFall17MiniAODv2-00119'
p265
sg5
S'27413121'
p266
sg7
S'DYJetsToLL_M-50_TuneCP5_13TeV-amcatnloFXFX-pythia8/RunIIFall17MiniAODv2-PU2017_12Apr2018_94X_mc2017_realistic_v14-v1/MINIAODSIM'
p267
sg9
S'1'
p268
sg11
S'27435948'
p269
sg13
S'27413121'
p270
ssS'WW_TuneCP5_13TeV-pythia8RunIIFall17MiniAODv2-PU2017_12Apr2018_94X_mc2017_realistic_v14-v2'
p271
(dp272
g3
S'B2G-RunIIFall17MiniAODv2-00586'
p273
sg5
S'122857.5858'
p274
sg7
S'WW_TuneCP5_13TeV-pythia8/RunIIFall17MiniAODv2-PU2017_12Apr2018_94X_mc2017_realistic_v14-v2/MINIAODSIM'
p275
sg9
S'63.21'
p276
sg11
S'7779630'
p277
sg13
S'7765828'
p278
ssS'TTGJets_TuneCP5_13TeV-amcatnloFXFX-madspin-pythia8RunIIFall17MiniAODv2-PU2017_12Apr2018_94X_mc2017_realistic_v14-v1'
p279
(dp280
g3
S'SUS-RunIIFall17MiniAODv2-00014'
p281
sg5
S'1069723.508'
p282
sg7
S'TTGJets_TuneCP5_13TeV-amcatnloFXFX-madspin-pythia8/RunIIFall17MiniAODv2-PU2017_12Apr2018_94X_mc2017_realistic_v14-v1/MINIAODSIM'
p283
sg9
S'4.322'
p284
sg11
S'4647278'
p285
sg13
S'4623345'
p286
ssS'QCD_Pt-30toInf_DoubleEMEnriched_MGG-40to80_TuneCP5_13TeV_Pythia8RunIIFall17MiniAODv2-PU2017_12Apr2018_94X_mc2017_realistic_v14-v1'
p287
(dp288
g3
S'HIG-RunIIFall17MiniAODv2-00005'
p289
sg5
S'0.2594601074'
p290
sg7
S'QCD_Pt-30toInf_DoubleEMEnriched_MGG-40to80_TuneCP5_13TeV_Pythia8/RunIIFall17MiniAODv2-PU2017_12Apr2018_94X_mc2017_realistic_v14-v1/MINIAODSIM'
p291
sg9
S'162060000'
p292
sg11
S'42446108'
p293
sg13
S'42048105'
p294
ssS'TTTo2L2Nu_TuneCP5_13TeV-powheg-pythia8RunIIFall17MiniAODv2-PU2017_12Apr2018_94X_mc2017_realistic_v14-v2'
p295
(dp296
g3
S'TOP-RunIIFall17MiniAODv2-00157'
p297
sg5
S'13325.27046'
p298
sg7
S'TTTo2L2Nu_TuneCP5_13TeV-powheg-pythia8/RunIIFall17MiniAODv2-PU2017_12Apr2018_94X_mc2017_realistic_v14-v2/MINIAODSIM'
p299
sg9
S'72.1'
p300
sg11
S'960752'
p301
sg13
S'960752'
p302
ssS'QCD_Pt-30to50_MuEnrichedPt5_TuneCP5_13TeV_pythia8RunIIFall17MiniAODv2-PU2017_12Apr2018_94X_mc2017_realistic_v14-v1'
p303
(dp304
g3
S'BTV-RunIIFall17MiniAODv2-00007'
p305
sg5
S'0.2075076769'
p306
sg7
S'QCD_Pt-30to50_MuEnrichedPt5_TuneCP5_13TeV_pythia8/RunIIFall17MiniAODv2-PU2017_12Apr2018_94X_mc2017_realistic_v14-v1/MINIAODSIM'
p307
sg9
S'139900000'
p308
sg11
S'29030324'
p309
sg13
S'29030324'
p310
ssS'TTToSemiLeptonic_TuneCP5_13TeV-powheg-pythia8RunIIFall17MiniAODv2-PU2017_12Apr2018_94X_mc2017_realistic_v14-v2'
p311
(dp312
g3
S'TOP-RunIIFall17MiniAODv2-00003'
p313
sg5
S'136995.2576'
p314
sg7
S'TTToSemiLeptonic_TuneCP5_13TeV-powheg-pythia8/RunIIFall17MiniAODv2-PU2017_12Apr2018_94X_mc2017_realistic_v14-v2/MINIAODSIM'
p315
sg9
S'300.9'
p316
sg11
S'41244988'
p317
sg13
S'41221873'
p318
ssS'ST_tW_antitop_5f_inclusiveDecays_TuneCP5_13TeV-powheg-pythia8RunIIFall17MiniAODv2-PU2017_12Apr2018_94X_mc2017_realistic_v14-v2'
p319
(dp320
g3
S'TOP-RunIIFall17MiniAODv2-00172'
p321
sg5
S'228514.1793'
p322
sg7
S'ST_tW_antitop_5f_inclusiveDecays_TuneCP5_13TeV-powheg-pythia8/RunIIFall17MiniAODv2-PU2017_12Apr2018_94X_mc2017_realistic_v14-v2/MINIAODSIM'
p323
sg9
S'34.91'
p324
sg11
S'7977430'
p325
sg13
S'7977430'
p326
ssS'ST_tW_antitop_5f_inclusiveDecays_TuneCP5_13TeV-powheg-pythia8RunIIFall17MiniAODv2-PU2017_12Apr2018_94X_mc2017_realistic_v14-v1'
p327
(dp328
g3
S'TOP-RunIIFall17MiniAODv2-00014'
p329
sg5
S'222883.7009'
p330
sg7
S'ST_tW_antitop_5f_inclusiveDecays_TuneCP5_13TeV-powheg-pythia8/RunIIFall17MiniAODv2-PU2017_12Apr2018_94X_mc2017_realistic_v14-v1/MINIAODSIM'
p331
sg9
S'34.91'
p332
sg11
S'7803950'
p333
sg13
S'7780870'
p334
ssS'QCD_Pt-20to30_EMEnriched_TuneCP5_13TeV_pythia8RunIIFall17MiniAODv2-PU2017_12Apr2018_94X_mc2017_realistic_v14-v1'
p335
(dp336
g3
S'EGM-RunIIFall17MiniAODv2-00003'
p337
sg5
S'0.02809523929'
p338
sg7
S'QCD_Pt-20to30_EMEnriched_TuneCP5_13TeV_pythia8/RunIIFall17MiniAODv2-PU2017_12Apr2018_94X_mc2017_realistic_v14-v1/MINIAODSIM'
p339
sg9
S'399100000'
p340
sg11
S'11590942'
p341
sg13
S'11212810'
p342
ssS'QCD_Pt-600to800_MuEnrichedPt5_TuneCP5_13TeV_pythia8RunIIFall17MiniAODv2-PU2017_12Apr2018_94X_mc2017_realistic_v14-v1'
p343
(dp344
g3
S'BTV-RunIIFall17MiniAODv2-00070'
p345
sg5
S'92265.34266'
p346
sg7
S'QCD_Pt-600to800_MuEnrichedPt5_TuneCP5_13TeV_pythia8/RunIIFall17MiniAODv2-PU2017_12Apr2018_94X_mc2017_realistic_v14-v1/MINIAODSIM'
p347
sg9
S'187.109'
p348
sg11
S'17328352'
p349
sg13
S'17263676'
p350
ssS'QCD_Pt-20to30_MuEnrichedPt5_TuneCP5_13TeV_pythia8RunIIFall17MiniAODv2-PU2017_12Apr2018_94X_mc2017_realistic_v14-v1'
p351
(dp352
g3
S'BTV-RunIIFall17MiniAODv2-00006'
p353
sg5
S'0.05013983295'
p354
sg7
S'QCD_Pt-20to30_MuEnrichedPt5_TuneCP5_13TeV_pythia8/RunIIFall17MiniAODv2-PU2017_12Apr2018_94X_mc2017_realistic_v14-v1/MINIAODSIM'
p355
sg9
S'562700000'
p356
sg11
S'28213684'
p357
sg13
S'28213684'
p358
ssS'QCD_Pt-470to600_MuEnrichedPt5_TuneCP5_13TeV_pythia8RunIIFall17MiniAODv2-PU2017_12Apr2018_94X_mc2017_realistic_v14-v1'
p359
(dp360
g3
S'BTV-RunIIFall17MiniAODv2-00013'
p361
sg5
S'37366.81412'
p362
sg7
S'QCD_Pt-470to600_MuEnrichedPt5_TuneCP5_13TeV_pythia8/RunIIFall17MiniAODv2-PU2017_12Apr2018_94X_mc2017_realistic_v14-v1/MINIAODSIM'
p363
sg9
S'648.8'
p364
sg11
S'24243589'
p365
sg13
S'24243589'
p366
ssS'ST_tW_top_5f_NoFullyHadronicDecays_TuneCP5_13TeV-powheg-pythia8RunIIFall17MiniAODv2-PU2017_12Apr2018_94X_mc2017_realistic_v14-v1'
p367
(dp368
g3
S'TOP-RunIIFall17MiniAODv2-00015'
p369
sg5
S'142493.1252'
p370
sg7
S'ST_tW_top_5f_NoFullyHadronicDecays_TuneCP5_13TeV-powheg-pythia8/RunIIFall17MiniAODv2-PU2017_12Apr2018_94X_mc2017_realistic_v14-v1/MINIAODSIM'
p371
sg9
S'34.91'
p372
sg11
S'4974435'
p373
sg13
S'4974435'
p374
ssS'ST_tW_antitop_5f_NoFullyHadronicDecays_TuneCP5_13TeV-powheg-pythia8RunIIFall17MiniAODv2-PU2017_12Apr2018_94X_mc2017_realistic_v14_ext1-v1'
p375
(dp376
g3
S'SUS-RunIIFall17MiniAODv2-00041'
p377
sg5
S'175516.6142'
p378
sg7
S'ST_tW_antitop_5f_NoFullyHadronicDecays_TuneCP5_13TeV-powheg-pythia8/RunIIFall17MiniAODv2-PU2017_12Apr2018_94X_mc2017_realistic_v14_ext1-v1/MINIAODSIM'
p379
sg9
S'34.91'
p380
sg11
S'6127285'
p381
sg13
S'6127285'
p382
ssS'QCD_Pt-80to120_EMEnriched_TuneCP5_13TeV_pythia8RunIIFall17MiniAODv2-PU2017_12Apr2018_94X_mc2017_realistic_v14-v1'
p383
(dp384
g3
S'EGM-RunIIFall17MiniAODv2-00008'
p385
sg5
S'3.876054491'
p386
sg7
S'QCD_Pt-80to120_EMEnriched_TuneCP5_13TeV_pythia8/RunIIFall17MiniAODv2-PU2017_12Apr2018_94X_mc2017_realistic_v14-v1/MINIAODSIM'
p387
sg9
S'2349000'
p388
sg11
S'9104852'
p389
sg13
S'9104852'
p390
ssS'QCD_Pt-30to50_EMEnriched_TuneCP5_13TeV_pythia8RunIIFall17MiniAODv2-PU2017_12Apr2018_94X_mc2017_realistic_v14-v1'
p391
(dp392
g3
S'EGM-RunIIFall17MiniAODv2-00002'
p393
sg5
S'0.1377426306'
p394
sg7
S'QCD_Pt-30to50_EMEnriched_TuneCP5_13TeV_pythia8/RunIIFall17MiniAODv2-PU2017_12Apr2018_94X_mc2017_realistic_v14-v1/MINIAODSIM'
p395
sg9
S'107200000'
p396
sg11
S'14766010'
p397
sg13
S'14766010'
p398
ssS'TTGJets_TuneCP5_13TeV-amcatnloFXFX-madspin-pythia8RunIIFall17MiniAODv2-PU2017_12Apr2018_94X_mc2017_realistic_v14_ext1-v2'
p399
(dp400
g3
S'SUS-RunIIFall17MiniAODv2-00138'
p401
sg5
S'2019733.457'
p402
sg7
S'TTGJets_TuneCP5_13TeV-amcatnloFXFX-madspin-pythia8/RunIIFall17MiniAODv2-PU2017_12Apr2018_94X_mc2017_realistic_v14_ext1-v2/MINIAODSIM'
p403
sg9
S'4.322'
p404
sg11
S'10000000'
p405
sg13
S'8729288'
p406
ss.