(dp0
S'QCD_Pt-80to120_MuEnrichedPt5_TuneCUETP8M1_13TeV_pythia8-v2'
p1
(dp2
S'prepid'
p3
S'BTV-RunIISummer16MiniAODv3-00032'
p4
sS'luminosity'
p5
S'5.037462388'
p6
sS'dataset'
p7
S'QCD_Pt-80to120_MuEnrichedPt5_TuneCUETP8M1_13TeV_pythia8/RunIISummer16MiniAODv3-PUMoriond17_94X_mcRun2_asymptotic_v3-v2/MINIAODSIM'
p8
sS'crosssection'
p9
S'2758420'
p10
sS'requested_events'
p11
S'13895437'
p12
sS'completed_events'
p13
S'13895437'
p14
ssS'QCD_Pt-170to300_MuEnrichedPt5_TuneCUETP8M1_13TeV_pythia8-v1'
p15
(dp16
g3
S'BTV-RunIISummer16MiniAODv3-00004'
p17
sg5
S'67.35508395'
p18
sg7
S'QCD_Pt-170to300_MuEnrichedPt5_TuneCUETP8M1_13TeV_pythia8/RunIISummer16MiniAODv3-PUMoriond17_94X_mcRun2_asymptotic_v3-v1/MINIAODSIM'
p19
sg9
S'117989'
p20
sg11
S'7947159'
p21
sg13
S'7947159'
p22
ssS'QCD_Pt-20to30_EMEnriched_TuneCUETP8M1_13TeV_pythia8-v2'
p23
(dp24
g3
S'SUS-RunIISummer16MiniAODv3-00179'
p25
sg5
S'0.01657370875'
p26
sg7
S'QCD_Pt-20to30_EMEnriched_TuneCUETP8M1_13TeV_pythia8/RunIISummer16MiniAODv3-PUMoriond17_94X_mcRun2_asymptotic_v3-v2/MINIAODSIM'
p27
sg9
S'557600000'
p28
sg11
S'9241500'
p29
sg13
S'9241500'
p30
ssS'TTGJets_TuneCUETP8M1_13TeV-amcatnloFXFX-madspin-pythia8_ext1-v2'
p31
(dp32
g3
S'SUS-RunIISummer16MiniAODv3-00046'
p33
sg5
S'2618754.507'
p34
sg7
S'TTGJets_TuneCUETP8M1_13TeV-amcatnloFXFX-madspin-pythia8/RunIISummer16MiniAODv3-PUMoriond17_94X_mcRun2_asymptotic_v3_ext1-v2/MINIAODSIM'
p35
sg9
S'3.772'
p36
sg11
S'9994869'
p37
sg13
S'9877942'
p38
ssS'ZZ_TuneCUETP8M1_13TeV-pythia8_ext1-v2'
p39
(dp40
g3
S'TOP-RunIISummer16MiniAODv3-00145'
p41
sg5
S'96708.72093'
p42
sg7
S'ZZ_TuneCUETP8M1_13TeV-pythia8/RunIISummer16MiniAODv3-PUMoriond17_94X_mcRun2_asymptotic_v3_ext1-v2/MINIAODSIM'
p43
sg9
S'10.32'
p44
sg11
S'998034'
p45
sg13
S'998034'
p46
ssS'QCD_Pt-1000toInf_MuEnrichedPt5_TuneCUETP8M1_13TeV_pythia8_ext1-v2'
p47
(dp48
g3
S'BTV-RunIISummer16MiniAODv3-00052'
p49
sg5
S'924030.6793'
p50
sg7
S'QCD_Pt-1000toInf_MuEnrichedPt5_TuneCUETP8M1_13TeV_pythia8/RunIISummer16MiniAODv3-PUMoriond17_94X_mcRun2_asymptotic_v3_ext1-v2/MINIAODSIM'
p51
sg9
S'10.4305'
p52
sg11
S'9638102'
p53
sg13
S'9638102'
p54
ssS'QCD_Pt-80to120_EMEnriched_TuneCUETP8M1_13TeV_pythia8_ext1-v2'
p55
(dp56
g3
S'TSG-RunIISummer16MiniAODv3-00010'
p57
sg5
S'14.9547725'
p58
sg7
S'QCD_Pt-80to120_EMEnriched_TuneCUETP8M1_13TeV_pythia8/RunIISummer16MiniAODv3-PUMoriond17_94X_mcRun2_asymptotic_v3_ext1-v2/MINIAODSIM'
p59
sg9
S'2800000'
p60
sg11
S'41873363'
p61
sg13
S'41873363'
p62
ssS'DYJetsToLL_M-50_TuneCUETP8M1_13TeV-amcatnloFXFX-pythia8_ext2-v1'
p63
(dp64
g3
S'SMP-RunIISummer16MiniAODv3-00066'
p65
sg5
S'21301.10141'
p66
sg7
S'DYJetsToLL_M-50_TuneCUETP8M1_13TeV-amcatnloFXFX-pythia8/RunIISummer16MiniAODv3-PUMoriond17_94X_mcRun2_asymptotic_v3_ext2-v1/MINIAODSIM'
p67
sg9
S'5670'
p68
sg11
S'122547040'
p69
sg13
S'120777245'
p70
ssS'WW_TuneCUETP8M1_13TeV-pythia8-v2'
p71
(dp72
g3
S'TOP-RunIISummer16MiniAODv3-00140'
p73
sg5
S'15725.54975'
p74
sg7
S'WW_TuneCUETP8M1_13TeV-pythia8/RunIISummer16MiniAODv3-PUMoriond17_94X_mcRun2_asymptotic_v3-v2/MINIAODSIM'
p75
sg9
S'63.21'
p76
sg11
S'994012'
p77
sg13
S'994012'
p78
ssS'QCD_Pt-600to800_MuEnrichedPt5_TuneCUETP8M1_13TeV_pythia8_ext1-v2'
p79
(dp80
g3
S'BTV-RunIISummer16MiniAODv3-00036'
p81
sg5
S'31912.81552'
p82
sg7
S'QCD_Pt-600to800_MuEnrichedPt5_TuneCUETP8M1_13TeV_pythia8/RunIISummer16MiniAODv3-PUMoriond17_94X_mcRun2_asymptotic_v3_ext1-v2/MINIAODSIM'
p83
sg9
S'187.109'
p84
sg11
S'5971175'
p85
sg13
S'5971175'
p86
ssS'QCD_Pt-20to30_MuEnrichedPt5_TuneCUETP8M1_13TeV_pythia8-v2'
p87
(dp88
g3
S'BTV-RunIISummer16MiniAODv3-00029'
p89
sg5
S'0.05707635069'
p90
sg7
S'QCD_Pt-20to30_MuEnrichedPt5_TuneCUETP8M1_13TeV_pythia8/RunIISummer16MiniAODv3-PUMoriond17_94X_mcRun2_asymptotic_v3-v2/MINIAODSIM'
p91
sg9
S'558528000'
p92
sg11
S'31878740'
p93
sg13
S'31878740'
p94
ssS'QCD_Pt-800to1000_MuEnrichedPt5_TuneCUETP8M1_13TeV_pythia8-v2'
p95
(dp96
g3
S'BTV-RunIISummer16MiniAODv3-00008'
p97
sg5
S'122501.4066'
p98
sg7
S'QCD_Pt-800to1000_MuEnrichedPt5_TuneCUETP8M1_13TeV_pythia8/RunIISummer16MiniAODv3-PUMoriond17_94X_mcRun2_asymptotic_v3-v2/MINIAODSIM'
p99
sg9
S'32.3486'
p100
sg11
S'3962749'
p101
sg13
S'3962749'
p102
ssS'QCD_Pt-600to800_MuEnrichedPt5_TuneCUETP8M1_13TeV_pythia8-v2'
p103
(dp104
g3
S'BTV-RunIISummer16MiniAODv3-00007'
p105
sg5
S'21432.08504'
p106
sg7
S'QCD_Pt-600to800_MuEnrichedPt5_TuneCUETP8M1_13TeV_pythia8/RunIISummer16MiniAODv3-PUMoriond17_94X_mcRun2_asymptotic_v3-v2/MINIAODSIM'
p107
sg9
S'187.109'
p108
sg11
S'4010136'
p109
sg13
S'4010136'
p110
ssS'QCD_Pt-80to120_EMEnriched_TuneCUETP8M1_13TeV_pythia8-v2'
p111
(dp112
g3
S'TSG-RunIISummer16MiniAODv3-00004'
p113
sg5
S'12.83101464'
p114
sg7
S'QCD_Pt-80to120_EMEnriched_TuneCUETP8M1_13TeV_pythia8/RunIISummer16MiniAODv3-PUMoriond17_94X_mcRun2_asymptotic_v3-v2/MINIAODSIM'
p115
sg9
S'2800000'
p116
sg11
S'35926841'
p117
sg13
S'35926841'
p118
ssS'ST_t-channel_antitop_4f_inclusiveDecays_13TeV-powhegV2-madspin-pythia8_TuneCUETP8M1-v1'
p119
(dp120
g3
S'TOP-RunIISummer16MiniAODv3-00180'
p121
sg5
S'479444.3113'
p122
sg7
S'ST_t-channel_antitop_4f_inclusiveDecays_13TeV-powhegV2-madspin-pythia8_TuneCUETP8M1/RunIISummer16MiniAODv3-PUMoriond17_94X_mcRun2_asymptotic_v3-v1/MINIAODSIM'
p123
sg9
S'80.95'
p124
sg11
S'38811017'
p125
sg13
S'38811017'
p126
ssS'QCD_Pt-120to170_EMEnriched_TuneCUETP8M1_13TeV_pythia8_ext1-v2'
p127
(dp128
g3
S'TSG-RunIISummer16MiniAODv3-00011'
p129
sg5
S'89.23144444'
p130
sg7
S'QCD_Pt-120to170_EMEnriched_TuneCUETP8M1_13TeV_pythia8/RunIISummer16MiniAODv3-PUMoriond17_94X_mcRun2_asymptotic_v3_ext1-v2/MINIAODSIM'
p131
sg9
S'477000'
p132
sg11
S'42563399'
p133
sg13
S'42563399'
p134
ssS'WZ_TuneCUETP8M1_13TeV-pythia8-v2'
p135
(dp136
g3
S'TOP-RunIISummer16MiniAODv3-00141'
p137
sg5
S'43821.20947'
p138
sg7
S'WZ_TuneCUETP8M1_13TeV-pythia8/RunIISummer16MiniAODv3-PUMoriond17_94X_mcRun2_asymptotic_v3-v2/MINIAODSIM'
p139
sg9
S'22.82'
p140
sg11
S'1000000'
p141
sg13
S'1000000'
p142
ssS'WJetsToLNu_TuneCUETP8M1_13TeV-amcatnloFXFX-pythia8_ext2-v1'
p143
(dp144
g3
S'SMP-RunIISummer16MiniAODv3-00213'
p145
sg5
S'3935.364953'
p146
sg7
S'WJetsToLNu_TuneCUETP8M1_13TeV-amcatnloFXFX-pythia8/RunIISummer16MiniAODv3-PUMoriond17_94X_mcRun2_asymptotic_v3_ext2-v1/MINIAODSIM'
p147
sg9
S'60290'
p148
sg11
S'237912899'
p149
sg13
S'237263153'
p150
ssS'QCD_Pt-300toInf_EMEnriched_TuneCUETP8M1_13TeV_pythia8-v2'
p151
(dp152
g3
S'TSG-RunIISummer16MiniAODv3-00007'
p153
sg5
S'820.0378889'
p154
sg7
S'QCD_Pt-300toInf_EMEnriched_TuneCUETP8M1_13TeV_pythia8/RunIISummer16MiniAODv3-PUMoriond17_94X_mcRun2_asymptotic_v3-v2/MINIAODSIM'
p155
sg9
S'9000'
p156
sg11
S'7380341'
p157
sg13
S'7380341'
p158
ssS'QCD_Pt-470to600_MuEnrichedPt5_TuneCUETP8M1_13TeV_pythia8_ext1-v2'
p159
(dp160
g3
S'BTV-RunIISummer16MiniAODv3-00035'
p161
sg5
S'8781.637667'
p162
sg7
S'QCD_Pt-470to600_MuEnrichedPt5_TuneCUETP8M1_13TeV_pythia8/RunIISummer16MiniAODv3-PUMoriond17_94X_mcRun2_asymptotic_v3_ext1-v2/MINIAODSIM'
p163
sg9
S'645.528'
p164
sg11
S'5668793'
p165
sg13
S'5668793'
p166
ssS'QCD_Pt-30to50_EMEnriched_TuneCUETP8M1_13TeV_pythia8_ext1-v2'
p167
(dp168
g3
S'TSG-RunIISummer16MiniAODv3-00008'
p169
sg5
S'0.04979705147'
p170
sg7
S'QCD_Pt-30to50_EMEnriched_TuneCUETP8M1_13TeV_pythia8/RunIISummer16MiniAODv3-PUMoriond17_94X_mcRun2_asymptotic_v3_ext1-v2/MINIAODSIM'
p171
sg9
S'136000000'
p172
sg11
S'6772399'
p173
sg13
S'6772399'
p174
ssS'QCD_Pt-800to1000_MuEnrichedPt5_TuneCUETP8M1_13TeV_pythia8_ext1-v2'
p175
(dp176
g3
S'BTV-RunIISummer16MiniAODv3-00037'
p177
sg5
S'185845.7244'
p178
sg7
S'QCD_Pt-800to1000_MuEnrichedPt5_TuneCUETP8M1_13TeV_pythia8/RunIISummer16MiniAODv3-PUMoriond17_94X_mcRun2_asymptotic_v3_ext1-v2/MINIAODSIM'
p179
sg9
S'32.3486'
p180
sg11
S'6011849'
p181
sg13
S'6011849'
p182
ssS'ST_t-channel_top_4f_inclusiveDecays_13TeV-powhegV2-madspin-pythia8_TuneCUETP8M1-v1'
p183
(dp184
g3
S'TOP-RunIISummer16MiniAODv3-00179'
p185
sg5
S'493353.0069'
p186
sg7
S'ST_t-channel_top_4f_inclusiveDecays_13TeV-powhegV2-madspin-pythia8_TuneCUETP8M1/RunIISummer16MiniAODv3-PUMoriond17_94X_mcRun2_asymptotic_v3-v1/MINIAODSIM'
p187
sg9
S'136.02'
p188
sg11
S'67250880'
p189
sg13
S'67105876'
p190
ssS'QCD_Pt-50to80_EMEnriched_TuneCUETP8M1_13TeV_pythia8-v2'
p191
(dp192
g3
S'TSG-RunIISummer16MiniAODv3-00003'
p193
sg5
S'1.13413101'
p194
sg7
S'QCD_Pt-50to80_EMEnriched_TuneCUETP8M1_13TeV_pythia8/RunIISummer16MiniAODv3-PUMoriond17_94X_mcRun2_asymptotic_v3-v2/MINIAODSIM'
p195
sg9
S'19800000'
p196
sg11
S'22455794'
p197
sg13
S'22455794'
p198
ssS'DYJetsToLL_M-10to50_TuneCUETP8M1_13TeV-amcatnloFXFX-pythia8-v2'
p199
(dp200
g3
S'SMP-RunIISummer16MiniAODv3-00065'
p201
sg5
S'3656.871221'
p202
sg7
S'DYJetsToLL_M-10to50_TuneCUETP8M1_13TeV-amcatnloFXFX-pythia8/RunIISummer16MiniAODv3-PUMoriond17_94X_mcRun2_asymptotic_v3-v2/MINIAODSIM'
p203
sg9
S'18590'
p204
sg11
S'68126073'
p205
sg13
S'67981236'
p206
ssS'QCD_Pt-300to470_MuEnrichedPt5_TuneCUETP8M1_13TeV_pythia8_ext1-v1'
p207
(dp208
g3
S'BTV-RunIISummer16MiniAODv3-00034'
p209
sg5
S'2105.160065'
p210
sg7
S'QCD_Pt-300to470_MuEnrichedPt5_TuneCUETP8M1_13TeV_pythia8/RunIISummer16MiniAODv3-PUMoriond17_94X_mcRun2_asymptotic_v3_ext1-v1/MINIAODSIM'
p211
sg9
S'7820.25'
p212
sg11
S'16462878'
p213
sg13
S'16462878'
p214
ssS'QCD_Pt-470to600_MuEnrichedPt5_TuneCUETP8M1_13TeV_pythia8-v2'
p215
(dp216
g3
S'BTV-RunIISummer16MiniAODv3-00006'
p217
sg5
S'6154.371305'
p218
sg7
S'QCD_Pt-470to600_MuEnrichedPt5_TuneCUETP8M1_13TeV_pythia8/RunIISummer16MiniAODv3-PUMoriond17_94X_mcRun2_asymptotic_v3-v2/MINIAODSIM'
p219
sg9
S'645.528'
p220
sg11
S'3972819'
p221
sg13
S'3972819'
p222
ssS'QCD_Pt-30to50_EMEnriched_TuneCUETP8M1_13TeV_pythia8-v2'
p223
(dp224
g3
S'TSG-RunIISummer16MiniAODv3-00002'
p225
sg5
S'0.03482678676'
p226
sg7
S'QCD_Pt-30to50_EMEnriched_TuneCUETP8M1_13TeV_pythia8/RunIISummer16MiniAODv3-PUMoriond17_94X_mcRun2_asymptotic_v3-v2/MINIAODSIM'
p227
sg9
S'136000000'
p228
sg11
S'4736443'
p229
sg13
S'4736443'
p230
ssS'QCD_Pt-15to20_MuEnrichedPt5_TuneCUETP8M1_13TeV_pythia8-v2'
p231
(dp232
g3
S'BTV-RunIISummer16MiniAODv3-00002'
p233
sg5
S'0.003252657498'
p234
sg7
S'QCD_Pt-15to20_MuEnrichedPt5_TuneCUETP8M1_13TeV_pythia8/RunIISummer16MiniAODv3-PUMoriond17_94X_mcRun2_asymptotic_v3-v2/MINIAODSIM'
p235
sg9
S'1273190000'
p236
sg11
S'4141251'
p237
sg13
S'4141251'
p238
ssS'QCD_Pt-1000toInf_MuEnrichedPt5_TuneCUETP8M1_13TeV_pythia8-v2'
p239
(dp240
g3
S'BTV-RunIISummer16MiniAODv3-00009'
p241
sg5
S'382543.2146'
p242
sg7
S'QCD_Pt-1000toInf_MuEnrichedPt5_TuneCUETP8M1_13TeV_pythia8/RunIISummer16MiniAODv3-PUMoriond17_94X_mcRun2_asymptotic_v3-v2/MINIAODSIM'
p243
sg9
S'10.4305'
p244
sg11
S'3990117'
p245
sg13
S'3990117'
p246
ssS'ST_tW_top_5f_NoFullyHadronicDecays_13TeV-powheg_TuneCUETP8M1-v1'
p247
(dp248
g3
S'TOP-RunIISummer16MiniAODv3-00189'
p249
sg5
S'142421.7642'
p250
sg7
S'ST_tW_top_5f_NoFullyHadronicDecays_13TeV-powheg_TuneCUETP8M1/RunIISummer16MiniAODv3-PUMoriond17_94X_mcRun2_asymptotic_v3-v1/MINIAODSIM'
p251
sg9
S'38.09'
p252
sg11
S'5424845'
p253
sg13
S'5424845'
p254
ssS'TTGJets_TuneCUETP8M1_13TeV-amcatnloFXFX-madspin-pythia8-v2'
p255
(dp256
g3
S'SUS-RunIISummer16MiniAODv3-00224'
p257
sg5
S'1317530.701'
p258
sg7
S'TTGJets_TuneCUETP8M1_13TeV-amcatnloFXFX-madspin-pythia8/RunIISummer16MiniAODv3-PUMoriond17_94X_mcRun2_asymptotic_v3-v2/MINIAODSIM'
p259
sg9
S'3.697'
p260
sg11
S'4870911'
p261
sg13
S'4870911'
p262
ssS'ST_tW_top_5f_NoFullyHadronicDecays_13TeV-powheg_TuneCUETP8M1_ext1-v2'
p263
(dp264
g3
S'SUS-RunIISummer16MiniAODv3-00047'
p265
sg5
S'85498.81859'
p266
sg7
S'ST_tW_top_5f_NoFullyHadronicDecays_13TeV-powheg_TuneCUETP8M1/RunIISummer16MiniAODv3-PUMoriond17_94X_mcRun2_asymptotic_v3_ext1-v2/MINIAODSIM'
p267
sg9
S'38.09'
p268
sg11
S'3256650'
p269
sg13
S'3256650'
p270
ssS'QCD_Pt-470to600_MuEnrichedPt5_TuneCUETP8M1_13TeV_pythia8_ext2-v2'
p271
(dp272
g3
S'BTV-RunIISummer16MiniAODv3-00050'
p273
sg5
S'15255.20814'
p274
sg7
S'QCD_Pt-470to600_MuEnrichedPt5_TuneCUETP8M1_13TeV_pythia8/RunIISummer16MiniAODv3-PUMoriond17_94X_mcRun2_asymptotic_v3_ext2-v2/MINIAODSIM'
p275
sg9
S'645.528'
p276
sg11
S'9847664'
p277
sg13
S'9847664'
p278
ssS'QCD_Pt-170to300_EMEnriched_TuneCUETP8M1_13TeV_pythia8-v2'
p279
(dp280
g3
S'TSG-RunIISummer16MiniAODv3-00006'
p281
sg5
S'101.2295'
p282
sg7
S'QCD_Pt-170to300_EMEnriched_TuneCUETP8M1_13TeV_pythia8/RunIISummer16MiniAODv3-PUMoriond17_94X_mcRun2_asymptotic_v3-v2/MINIAODSIM'
p283
sg9
S'114000'
p284
sg11
S'11540163'
p285
sg13
S'11540163'
p286
ssS'QCD_Pt-50to80_EMEnriched_TuneCUETP8M1_13TeV_pythia8_ext1-v2'
p287
(dp288
g3
S'TSG-RunIISummer16MiniAODv3-00009'
p289
sg5
S'1.178447727'
p290
sg7
S'QCD_Pt-50to80_EMEnriched_TuneCUETP8M1_13TeV_pythia8/RunIISummer16MiniAODv3-PUMoriond17_94X_mcRun2_asymptotic_v3_ext1-v2/MINIAODSIM'
p291
sg9
S'19800000'
p292
sg11
S'23333265'
p293
sg13
S'23333265'
p294
ssS'ST_tW_antitop_5f_NoFullyHadronicDecays_13TeV-powheg_TuneCUETP8M1_ext1-v2'
p295
(dp296
g3
S'SUS-RunIISummer16MiniAODv3-00048'
p297
sg5
S'85492.43896'
p298
sg7
S'ST_tW_antitop_5f_NoFullyHadronicDecays_13TeV-powheg_TuneCUETP8M1/RunIISummer16MiniAODv3-PUMoriond17_94X_mcRun2_asymptotic_v3_ext1-v2/MINIAODSIM'
p299
sg9
S'38.09'
p300
sg11
S'3256407'
p301
sg13
S'3256407'
p302
ssS'WW_TuneCUETP8M1_13TeV-pythia8_ext1-v2'
p303
(dp304
g3
S'TOP-RunIISummer16MiniAODv3-00143'
p305
sg5
S'110554.7856'
p306
sg7
S'WW_TuneCUETP8M1_13TeV-pythia8/RunIISummer16MiniAODv3-PUMoriond17_94X_mcRun2_asymptotic_v3_ext1-v2/MINIAODSIM'
p307
sg9
S'63.21'
p308
sg11
S'6988168'
p309
sg13
S'6988168'
p310
ssS'ST_tW_antitop_5f_NoFullyHadronicDecays_13TeV-powheg_TuneCUETP8M1_ext2-v1'
p311
(dp312
g3
S'SUS-RunIISummer16MiniAODv3-00305'
p313
sg5
S'71583.17144'
p314
sg7
S'ST_tW_antitop_5f_NoFullyHadronicDecays_13TeV-powheg_TuneCUETP8M1/RunIISummer16MiniAODv3-94X_mcRun2_asymptotic_v3_ext2-v1/MINIAODSIM'
p315
sg9
S'38.09'
p316
sg11
S'2726603'
p317
sg13
S'2726603'
p318
ssS'QCD_Pt-120to170_MuEnrichedPt5_TuneCUETP8M1_13TeV_pythia8-v2'
p319
(dp320
g3
S'BTV-RunIISummer16MiniAODv3-00003'
p321
sg5
S'16.81094388'
p322
sg7
S'QCD_Pt-120to170_MuEnrichedPt5_TuneCUETP8M1_13TeV_pythia8/RunIISummer16MiniAODv3-PUMoriond17_94X_mcRun2_asymptotic_v3-v2/MINIAODSIM'
p323
sg9
S'469797'
p324
sg11
S'8042721'
p325
sg13
S'7897731'
p326
ssS'QCD_Pt-30to50_MuEnrichedPt5_TuneCUETP8M1_13TeV_pythia8-v2'
p327
(dp328
g3
S'BTV-RunIISummer16MiniAODv3-00030'
p329
sg5
S'0.214264465'
p330
sg7
S'QCD_Pt-30to50_MuEnrichedPt5_TuneCUETP8M1_13TeV_pythia8/RunIISummer16MiniAODv3-PUMoriond17_94X_mcRun2_asymptotic_v3-v2/MINIAODSIM'
p331
sg9
S'139803000'
p332
sg11
S'29954815'
p333
sg13
S'29954815'
p334
ssS'QCD_Pt-120to170_EMEnriched_TuneCUETP8M1_13TeV_pythia8-v2'
p335
(dp336
g3
S'TSG-RunIISummer16MiniAODv3-00005'
p337
sg5
S'75.5031782'
p338
sg7
S'QCD_Pt-120to170_EMEnriched_TuneCUETP8M1_13TeV_pythia8/RunIISummer16MiniAODv3-PUMoriond17_94X_mcRun2_asymptotic_v3-v2/MINIAODSIM'
p339
sg9
S'477000'
p340
sg11
S'36015016'
p341
sg13
S'36015016'
p342
ssS'QCD_Pt-80to120_MuEnrichedPt5_TuneCUETP8M1_13TeV_pythia8_ext1-v2'
p343
(dp344
g3
S'BTV-RunIISummer16MiniAODv3-00048'
p345
sg5
S'3.556365238'
p346
sg7
S'QCD_Pt-80to120_MuEnrichedPt5_TuneCUETP8M1_13TeV_pythia8/RunIISummer16MiniAODv3-PUMoriond17_94X_mcRun2_asymptotic_v3_ext1-v2/MINIAODSIM'
p347
sg9
S'2758420'
p348
sg11
S'9809949'
p349
sg13
S'9809949'
p350
ssS'ZZ_TuneCUETP8M1_13TeV-pythia8-v2'
p351
(dp352
g3
S'TOP-RunIISummer16MiniAODv3-00142'
p353
sg5
S'95936.43411'
p354
sg7
S'ZZ_TuneCUETP8M1_13TeV-pythia8/RunIISummer16MiniAODv3-PUMoriond17_94X_mcRun2_asymptotic_v3-v2/MINIAODSIM'
p355
sg9
S'10.32'
p356
sg11
S'990064'
p357
sg13
S'990064'
p358
ssS'QCD_Pt-300to470_MuEnrichedPt5_TuneCUETP8M1_13TeV_pythia8-v2'
p359
(dp360
g3
S'BTV-RunIISummer16MiniAODv3-00005'
p361
sg5
S'1015.004635'
p362
sg7
S'QCD_Pt-300to470_MuEnrichedPt5_TuneCUETP8M1_13TeV_pythia8/RunIISummer16MiniAODv3-PUMoriond17_94X_mcRun2_asymptotic_v3-v2/MINIAODSIM'
p363
sg9
S'7820.25'
p364
sg11
S'7937590'
p365
sg13
S'7937590'
p366
ssS'QCD_Pt-50to80_MuEnrichedPt5_TuneCUETP8M1_13TeV_pythia8-v2'
p367
(dp368
g3
S'BTV-RunIISummer16MiniAODv3-00031'
p369
sg5
S'1.022872935'
p370
sg7
S'QCD_Pt-50to80_MuEnrichedPt5_TuneCUETP8M1_13TeV_pythia8/RunIISummer16MiniAODv3-PUMoriond17_94X_mcRun2_asymptotic_v3-v2/MINIAODSIM'
p371
sg9
S'19222500'
p372
sg11
S'19806915'
p373
sg13
S'19662175'
p374
ssS'ST_tW_antitop_5f_NoFullyHadronicDecays_13TeV-powheg_TuneCUETP8M1-v1'
p375
(dp376
g3
S'TOP-RunIISummer16MiniAODv3-00190'
p377
sg5
S'142429.3515'
p378
sg7
S'ST_tW_antitop_5f_NoFullyHadronicDecays_13TeV-powheg_TuneCUETP8M1/RunIISummer16MiniAODv3-PUMoriond17_94X_mcRun2_asymptotic_v3-v1/MINIAODSIM'
p379
sg9
S'38.09'
p380
sg11
S'5425134'
p381
sg13
S'5425134'
p382
ssS'TT_TuneCUETP8M2T4_13TeV-powheg-pythia8-v1'
p383
(dp384
g3
S'TOP-RunIISummer16MiniAODv3-00024'
p385
sg5
S'105363.7658'
p386
sg7
S'TT_TuneCUETP8M2T4_13TeV-powheg-pythia8/RunIISummer16MiniAODv3-PUMoriond17_94X_mcRun2_asymptotic_v3-v1/MINIAODSIM'
p387
sg9
S'730'
p388
sg11
S'77615423'
p389
sg13
S'76915549'
p390
ssS'WZ_TuneCUETP8M1_13TeV-pythia8_ext1-v2'
p391
(dp392
g3
S'TOP-RunIISummer16MiniAODv3-00144'
p393
sg5
S'131357.1867'
p394
sg7
S'WZ_TuneCUETP8M1_13TeV-pythia8/RunIISummer16MiniAODv3-PUMoriond17_94X_mcRun2_asymptotic_v3_ext1-v2/MINIAODSIM'
p395
sg9
S'22.82'
p396
sg11
S'2997571'
p397
sg13
S'2997571'
p398
ssS'WJetsToLNu_TuneCUETP8M1_13TeV-amcatnloFXFX-pythia8-v1'
p399
(dp400
g3
S'SMP-RunIISummer16MiniAODv3-00191'
p401
sg5
S'400.0716371'
p402
sg7
S'WJetsToLNu_TuneCUETP8M1_13TeV-amcatnloFXFX-pythia8/RunIISummer16MiniAODv3-PUMoriond17_94X_mcRun2_asymptotic_v3-v1/MINIAODSIM'
p403
sg9
S'60290'
p404
sg11
S'24120319'
p405
sg13
S'24120319'
p406
ssS'QCD_Pt-300to470_MuEnrichedPt5_TuneCUETP8M1_13TeV_pythia8_ext2-v2'
p407
(dp408
g3
S'BTV-RunIISummer16MiniAODv3-00049'
p409
sg5
S'3146.383811'
p410
sg7
S'QCD_Pt-300to470_MuEnrichedPt5_TuneCUETP8M1_13TeV_pythia8/RunIISummer16MiniAODv3-PUMoriond17_94X_mcRun2_asymptotic_v3_ext2-v2/MINIAODSIM'
p411
sg9
S'7820.25'
p412
sg11
S'24605508'
p413
sg13
S'24605508'
p414
ssS'QCD_Pt-170to300_MuEnrichedPt5_TuneCUETP8M1_13TeV_pythia8_ext1-v2'
p415
(dp416
g3
S'BTV-RunIISummer16MiniAODv3-00033'
p417
sg5
S'79.69447999'
p418
sg7
S'QCD_Pt-170to300_MuEnrichedPt5_TuneCUETP8M1_13TeV_pythia8/RunIISummer16MiniAODv3-PUMoriond17_94X_mcRun2_asymptotic_v3_ext1-v2/MINIAODSIM'
p419
sg9
S'117989'
p420
sg11
S'9403072'
p421
sg13
S'9403072'
p422
ssS'QCD_Pt-800to1000_MuEnrichedPt5_TuneCUETP8M1_13TeV_pythia8_ext2-v2'
p423
(dp424
g3
S'BTV-RunIISummer16MiniAODv3-00051'
p425
sg5
S'308085.945'
p426
sg7
S'QCD_Pt-800to1000_MuEnrichedPt5_TuneCUETP8M1_13TeV_pythia8/RunIISummer16MiniAODv3-PUMoriond17_94X_mcRun2_asymptotic_v3_ext2-v2/MINIAODSIM'
p427
sg9
S'32.3486'
p428
sg11
S'9966149'
p429
sg13
S'9966149'
p430
ssS'DYJetsToLL_M-10to50_TuneCUETP8M1_13TeV-amcatnloFXFX-pythia8_ext1-v2'
p431
(dp432
g3
S'SMP-RunIISummer16MiniAODv3-00011'
p433
sg5
S'2157.361518'
p434
sg7
S'DYJetsToLL_M-10to50_TuneCUETP8M1_13TeV-amcatnloFXFX-pythia8/RunIISummer16MiniAODv3-PUMoriond17_94X_mcRun2_asymptotic_v3_ext1-v2/MINIAODSIM'
p435
sg9
S'18710'
p436
sg11
S'40509291'
p437
sg13
S'40364234'
p438
ssS'ST_tW_top_5f_NoFullyHadronicDecays_13TeV-powheg_TuneCUETP8M1_ext2-v1'
p439
(dp440
g3
S'SUS-RunIISummer16MiniAODv3-00304'
p441
sg5
S'71304.22683'
p442
sg7
S'ST_tW_top_5f_NoFullyHadronicDecays_13TeV-powheg_TuneCUETP8M1/RunIISummer16MiniAODv3-94X_mcRun2_asymptotic_v3_ext2-v1/MINIAODSIM'
p443
sg9
S'38.09'
p444
sg11
S'2715978'
p445
sg13
S'2715978'
p446
ss.