(dp0
S'ST_t-channel_top_5f_TuneCP5_13TeV-powheg-pythia8RunIIAutumn18MiniAOD-102X_upgrade2018_realistic_v15-v1'
p1
(dp2
S'prepid'
p3
S'TOP-RunIIAutumn18MiniAOD-00070'
p4
sS'luminosity'
p5
S'42749.28313'
p6
sS'dataset'
p7
S'ST_t-channel_top_5f_TuneCP5_13TeV-powheg-pythia8/RunIIAutumn18MiniAOD-102X_upgrade2018_realistic_v15-v1/MINIAODSIM'
p8
sS'crosssection'
p9
S'138.1'
p10
sS'requested_events'
p11
S'6000000'
p12
sS'completed_events'
p13
S'5903676'
p14
ssS'QCD_Pt-300to470_MuEnrichedPt5_TuneCP5_13TeV_pythia8RunIIAutumn18MiniAOD-102X_upgrade2018_realistic_v15-v3'
p15
(dp16
g3
S'BTV-RunIIAutumn18MiniAOD-00016'
p17
sg5
S'72.05414106'
p18
sg7
S'QCD_Pt-300to470_MuEnrichedPt5_TuneCP5_13TeV_pythia8/RunIIAutumn18MiniAOD-102X_upgrade2018_realistic_v15-v3/MINIAODSIM'
p19
sg9
S'6834'
p20
sg11
S'500000'
p21
sg13
S'492418'
p22
ssS'QCD_Pt-470to600_MuEnrichedPt5_TuneCP5_13TeV_pythia8RunIIAutumn18MiniAOD-102X_upgrade2018_realistic_v15-v1'
p23
(dp24
g3
S'BTV-RunIIAutumn18MiniAOD-00018'
p25
sg5
S'900.2667641'
p26
sg7
S'QCD_Pt-470to600_MuEnrichedPt5_TuneCP5_13TeV_pythia8/RunIIAutumn18MiniAOD-102X_upgrade2018_realistic_v15-v1/MINIAODSIM'
p27
sg9
S'547.3'
p28
sg11
S'515513'
p29
sg13
S'492716'
p30
ssS'QCD_Pt-20to30_MuEnrichedPt5_TuneCP5_13TeV_pythia8RunIIAutumn18MiniAOD-102X_upgrade2018_realistic_v15-v4'
p31
(dp32
g3
S'BTV-RunIIAutumn18MiniAOD-00004'
p33
sg5
S'0.07681891593'
p34
sg7
S'QCD_Pt-20to30_MuEnrichedPt5_TuneCP5_13TeV_pythia8/RunIIAutumn18MiniAOD-102X_upgrade2018_realistic_v15-v4/MINIAODSIM'
p35
sg9
S'398500000'
p36
sg11
S'32000000'
p37
sg13
S'30612338'
p38
ssS'QCD_Pt-600to800_MuEnrichedPt5_TuneCP5_13TeV_pythia8RunIIAutumn18MiniAOD-102X_upgrade2018_realistic_v15-v1'
p39
(dp40
g3
S'BTV-RunIIAutumn18MiniAOD-00088'
p41
sg5
S'88819.76281'
p42
sg7
S'QCD_Pt-600to800_MuEnrichedPt5_TuneCP5_13TeV_pythia8/RunIIAutumn18MiniAOD-102X_upgrade2018_realistic_v15-v1/MINIAODSIM'
p43
sg9
S'187.109'
p44
sg11
S'20000000'
p45
sg13
S'16618977'
p46
ssS'ST_t-channel_antitop_5f_TuneCP5_13TeV-powheg-pythia8RunIIAutumn18MiniAOD-102X_upgrade2018_realistic_v15-v1'
p47
(dp48
g3
S'TOP-RunIIAutumn18MiniAOD-00069'
p49
sg5
S'47928.06592'
p50
sg7
S'ST_t-channel_antitop_5f_TuneCP5_13TeV-powheg-pythia8/RunIIAutumn18MiniAOD-102X_upgrade2018_realistic_v15-v1/MINIAODSIM'
p51
sg9
S'82.52'
p52
sg11
S'4000000'
p53
sg13
S'3955024'
p54
ssS'QCD_Pt-120to170_EMEnriched_TuneCP5_13TeV_pythia8RunIIAutumn18MiniAOD-102X_upgrade2018_realistic_v15-v1'
p55
(dp56
g3
S'EGM-RunIIAutumn18MiniAOD-00012'
p57
sg5
S'24.46389148'
p58
sg7
S'QCD_Pt-120to170_EMEnriched_TuneCP5_13TeV_pythia8/RunIIAutumn18MiniAOD-102X_upgrade2018_realistic_v15-v1/MINIAODSIM'
p59
sg9
S'407300'
p60
sg11
S'9964143'
p61
sg13
S'9964143'
p62
ssS'QCD_Pt-170to300_EMEnriched_TuneCP5_13TeV_pythia8RunIIAutumn18MiniAOD-102X_upgrade2018_realistic_v15-v1'
p63
(dp64
g3
S'EGM-RunIIAutumn18MiniAOD-00013'
p65
sg5
S'30.25406683'
p66
sg7
S'QCD_Pt-170to300_EMEnriched_TuneCP5_13TeV_pythia8/RunIIAutumn18MiniAOD-102X_upgrade2018_realistic_v15-v1/MINIAODSIM'
p67
sg9
S'122700'
p68
sg11
S'3757094'
p69
sg13
S'3712174'
p70
ssS'QCD_Pt-80to120_EMEnriched_TuneCP5_13TeV_pythia8RunIIAutumn18MiniAOD-102X_upgrade2018_realistic_v15-v1'
p71
(dp72
g3
S'EGM-RunIIAutumn18MiniAOD-00011'
p73
sg5
S'4.107616433'
p74
sg7
S'QCD_Pt-80to120_EMEnriched_TuneCP5_13TeV_pythia8/RunIIAutumn18MiniAOD-102X_upgrade2018_realistic_v15-v1/MINIAODSIM'
p75
sg9
S'2349000'
p76
sg11
S'9648791'
p77
sg13
S'9648791'
p78
ssS'WZ_TuneCP5_13TeV-pythia8RunIIAutumn18MiniAOD-102X_upgrade2018_realistic_v15-v3'
p79
(dp80
g3
S'BTV-RunIIAutumn18MiniAOD-00085'
p81
sg5
S'170245.3988'
p82
sg7
S'WZ_TuneCP5_13TeV-pythia8/RunIIAutumn18MiniAOD-102X_upgrade2018_realistic_v15-v3/MINIAODSIM'
p83
sg9
S'22.82'
p84
sg11
S'4000000'
p85
sg13
S'3885000'
p86
ssS'TTGJets_TuneCP5_13TeV-amcatnloFXFX-madspin-pythia8RunIIAutumn18MiniAOD-102X_upgrade2018_realistic_v15-v1'
p87
(dp88
g3
S'SUS-RunIIAutumn18MiniAOD-00014'
p89
sg5
S'1085588.848'
p90
sg7
S'TTGJets_TuneCP5_13TeV-amcatnloFXFX-madspin-pythia8/RunIIAutumn18MiniAOD-102X_upgrade2018_realistic_v15-v1/MINIAODSIM'
p91
sg9
S'4.322'
p92
sg11
S'5000000'
p93
sg13
S'4691915'
p94
ssS'ZZ_TuneCP5_13TeV-pythia8RunIIAutumn18MiniAOD-102X_upgrade2018_realistic_v15-v2'
p95
(dp96
g3
S'BTV-RunIIAutumn18MiniAOD-00083'
p97
sg5
S'191763.5659'
p98
sg7
S'ZZ_TuneCP5_13TeV-pythia8/RunIIAutumn18MiniAOD-102X_upgrade2018_realistic_v15-v2/MINIAODSIM'
p99
sg9
S'10.32'
p100
sg11
S'2000000'
p101
sg13
S'1979000'
p102
ssS'DYJetsToLL_M-50_TuneCP5_13TeV-madgraphMLM-pythia8RunIIAutumn18MiniAOD-102X_upgrade2018_realistic_v15-v1'
p103
(dp104
g3
S'MUO-RunIIAutumn18MiniAOD-00016'
p105
sg5
S'6948.307698'
p106
sg7
S'DYJetsToLL_M-50_TuneCP5_13TeV-madgraphMLM-pythia8/RunIIAutumn18MiniAOD-102X_upgrade2018_realistic_v15-v1/MINIAODSIM'
p107
sg9
S'14420'
p108
sg11
S'100194597'
p109
sg13
S'100194597'
p110
ssS'QCD_Pt-30to50_EMEnriched_TuneCP5_13TeV_pythia8RunIIAutumn18MiniAOD-102X_upgrade2018_realistic_v15_ext1-v2'
p111
(dp112
g3
S'EGM-RunIIAutumn18MiniAOD-00009'
p113
sg5
S'0.1407283955'
p114
sg7
S'QCD_Pt-30to50_EMEnriched_TuneCP5_13TeV_pythia8/RunIIAutumn18MiniAOD-102X_upgrade2018_realistic_v15_ext1-v2/MINIAODSIM'
p115
sg9
S'107200000'
p116
sg11
S'15000000'
p117
sg13
S'15086084'
p118
ssS'QCD_Pt-470to600_MuEnrichedPt5_TuneCP5_13TeV_pythia8RunIIAutumn18MiniAOD-102X_upgrade2018_realistic_v15_ext1-v2'
p119
(dp120
g3
S'BTV-RunIIAutumn18MiniAOD-00024'
p121
sg5
S'36548.57299'
p122
sg7
S'QCD_Pt-470to600_MuEnrichedPt5_TuneCP5_13TeV_pythia8/RunIIAutumn18MiniAOD-102X_upgrade2018_realistic_v15_ext1-v2/MINIAODSIM'
p123
sg9
S'547.3'
p124
sg11
S'20000000'
p125
sg13
S'20003034'
p126
ssS'WJetsToLNu_TuneCP5_13TeV-madgraphMLM-pythia8RunIIAutumn18MiniAOD-102X_upgrade2018_realistic_v15-v2'
p127
(dp128
g3
S'HIG-RunIIAutumn18MiniAOD-00004'
p129
sg5
S'583.6225226'
p130
sg7
S'WJetsToLNu_TuneCP5_13TeV-madgraphMLM-pythia8/RunIIAutumn18MiniAOD-102X_upgrade2018_realistic_v15-v2/MINIAODSIM'
p131
sg9
S'121700'
p132
sg11
S'80000000'
p133
sg13
S'71026861'
p134
ssS'QCD_Pt-30to50_MuEnrichedPt5_TuneCP5_13TeV_pythia8RunIIAutumn18MiniAOD-102X_upgrade2018_realistic_v15-v3'
p135
(dp136
g3
S'BTV-RunIIAutumn18MiniAOD-00006'
p137
sg5
S'0.2795567446'
p138
sg7
S'QCD_Pt-30to50_MuEnrichedPt5_TuneCP5_13TeV_pythia8/RunIIAutumn18MiniAOD-102X_upgrade2018_realistic_v15-v3/MINIAODSIM'
p139
sg9
S'106900000'
p140
sg11
S'30000000'
p141
sg13
S'29884616'
p142
ssS'WW_TuneCP5_13TeV-pythia8RunIIAutumn18MiniAOD-102X_upgrade2018_realistic_v15-v2'
p143
(dp144
g3
S'BTV-RunIIAutumn18MiniAOD-00084'
p145
sg5
S'124189.2106'
p146
sg7
S'WW_TuneCP5_13TeV-pythia8/RunIIAutumn18MiniAOD-102X_upgrade2018_realistic_v15-v2/MINIAODSIM'
p147
sg9
S'63.21'
p148
sg11
S'8000000'
p149
sg13
S'7850000'
p150
ssS'TTToSemiLeptonic_TuneCP5_13TeV-powheg-pythia8RunIIAutumn18MiniAOD-102X_upgrade2018_realistic_v15-v1'
p151
(dp152
g3
S'TOP-RunIIAutumn18MiniAOD-00058'
p153
sg5
S'337487.5374'
p154
sg7
S'TTToSemiLeptonic_TuneCP5_13TeV-powheg-pythia8/RunIIAutumn18MiniAOD-102X_upgrade2018_realistic_v15-v1/MINIAODSIM'
p155
sg9
S'300.9'
p156
sg11
S'103420000'
p157
sg13
S'101550000'
p158
ssS'QCD_Pt-20to30_EMEnriched_TuneCP5_13TeV_pythia8RunIIAutumn18MiniAOD-102X_upgrade2018_realistic_v15-v1'
p159
(dp160
g3
S'EGM-RunIIAutumn18MiniAOD-00008'
p161
sg5
S'0.03571880982'
p162
sg7
S'QCD_Pt-20to30_EMEnriched_TuneCP5_13TeV_pythia8/RunIIAutumn18MiniAOD-102X_upgrade2018_realistic_v15-v1/MINIAODSIM'
p163
sg9
S'399100000'
p164
sg11
S'14905219'
p165
sg13
S'14255377'
p166
ssS'QCD_Pt-50to80_MuEnrichedPt5_TuneCP5_13TeV_pythia8RunIIAutumn18MiniAOD-102X_upgrade2018_realistic_v15-v3'
p167
(dp168
g3
S'BTV-RunIIAutumn18MiniAOD-00008'
p169
sg5
S'1.290189179'
p170
sg7
S'QCD_Pt-50to80_MuEnrichedPt5_TuneCP5_13TeV_pythia8/RunIIAutumn18MiniAOD-102X_upgrade2018_realistic_v15-v3/MINIAODSIM'
p171
sg9
S'15710000'
p172
sg11
S'20500000'
p173
sg13
S'20268872'
p174
ssS'DYJetsToLL_M-10to50_TuneCP5_13TeV-madgraphMLM-pythia8RunIIAutumn18MiniAOD-102X_upgrade2018_realistic_v15-v2'
p175
(dp176
g3
S'BTV-RunIIAutumn18MiniAOD-00086'
p177
sg5
S'2462.003875'
p178
sg7
S'DYJetsToLL_M-10to50_TuneCP5_13TeV-madgraphMLM-pythia8/RunIIAutumn18MiniAOD-102X_upgrade2018_realistic_v15-v2/MINIAODSIM'
p179
sg9
S'16000'
p180
sg11
S'50000000'
p181
sg13
S'39392062'
p182
ssS'QCD_Pt-20toInf_MuEnrichedPt15_TuneCP5_13TeV_pythia8RunIIAutumn18MiniAOD-102X_upgrade2018_realistic_v15-v1'
p183
(dp184
g3
S'MUO-RunIIAutumn18MiniAOD-00014'
p185
sg5
S'0.04232446057'
p186
sg7
S'QCD_Pt-20toInf_MuEnrichedPt15_TuneCP5_13TeV_pythia8/RunIIAutumn18MiniAOD-102X_upgrade2018_realistic_v15-v1/MINIAODSIM'
p187
sg9
S'523700000'
p188
sg11
S'22263007'
p189
sg13
S'22165320'
p190
ssS'QCD_Pt-50to80_EMEnriched_TuneCP5_13TeV_pythia8RunIIAutumn18MiniAOD-102X_upgrade2018_realistic_v15-v1'
p191
(dp192
g3
S'EGM-RunIIAutumn18MiniAOD-00010'
p193
sg5
S'0.6886628189'
p194
sg7
S'QCD_Pt-50to80_EMEnriched_TuneCP5_13TeV_pythia8/RunIIAutumn18MiniAOD-102X_upgrade2018_realistic_v15-v1/MINIAODSIM'
p195
sg9
S'15680000'
p196
sg11
S'10946252'
p197
sg13
S'10798233'
p198
ssS'QCD_Pt-120to170_MuEnrichedPt5_TuneCP5_13TeV_pythia8RunIIAutumn18MiniAOD-102X_upgrade2018_realistic_v15-v1'
p199
(dp200
g3
S'BTV-RunIIAutumn18MiniAOD-00012'
p201
sg5
S'1.542521908'
p202
sg7
S'QCD_Pt-120to170_MuEnrichedPt5_TuneCP5_13TeV_pythia8/RunIIAutumn18MiniAOD-102X_upgrade2018_realistic_v15-v1/MINIAODSIM'
p203
sg9
S'410800'
p204
sg11
S'653472'
p205
sg13
S'633668'
p206
ssS'QCD_Pt-1000toInf_MuEnrichedPt5_TuneCP5_13TeV_pythia8RunIIAutumn18MiniAOD-102X_upgrade2018_realistic_v15-v1'
p207
(dp208
g3
S'BTV-RunIIAutumn18MiniAOD-00090'
p209
sg5
S'1027735.008'
p210
sg7
S'QCD_Pt-1000toInf_MuEnrichedPt5_TuneCP5_13TeV_pythia8/RunIIAutumn18MiniAOD-102X_upgrade2018_realistic_v15-v1/MINIAODSIM'
p211
sg9
S'10.4305'
p212
sg11
S'14000000'
p213
sg13
S'10719790'
p214
ssS'QCD_Pt-170to300_MuEnrichedPt5_TuneCP5_13TeV_pythia8RunIIAutumn18MiniAOD-102X_upgrade2018_realistic_v15-v3'
p215
(dp216
g3
S'BTV-RunIIAutumn18MiniAOD-00014'
p217
sg5
S'347.6187343'
p218
sg7
S'QCD_Pt-170to300_MuEnrichedPt5_TuneCP5_13TeV_pythia8/RunIIAutumn18MiniAOD-102X_upgrade2018_realistic_v15-v3/MINIAODSIM'
p219
sg9
S'103500'
p220
sg11
S'38000000'
p221
sg13
S'35978539'
p222
ssS'TTToHadronic_TuneCP5_13TeV-powheg-pythia8RunIIAutumn18MiniAOD-102X_upgrade2018_realistic_v15-v1'
p223
(dp224
g3
S'TOP-RunIIAutumn18MiniAOD-00005'
p225
sg5
S'426275.884'
p226
sg7
S'TTToHadronic_TuneCP5_13TeV-powheg-pythia8/RunIIAutumn18MiniAOD-102X_upgrade2018_realistic_v15-v1/MINIAODSIM'
p227
sg9
S'313.9'
p228
sg11
S'133808000'
p229
sg13
S'133808000'
p230
ssS'QCD_Pt-15to20_EMEnriched_TuneCP5_13TeV_pythia8RunIIAutumn18MiniAOD-102X_upgrade2018_realistic_v15_ext1-v2'
p231
(dp232
g3
S'EGM-RunIIAutumn18MiniAOD-00018'
p233
sg5
S'0.01733025678'
p234
sg7
S'QCD_Pt-15to20_EMEnriched_TuneCP5_13TeV_pythia8/RunIIAutumn18MiniAOD-102X_upgrade2018_realistic_v15_ext1-v2/MINIAODSIM'
p235
sg9
S'841200000'
p236
sg11
S'15000000'
p237
sg13
S'14578212'
p238
ssS'ST_tW_top_5f_NoFullyHadronicDecays_TuneCP5_13TeV-powheg-pythia8RunIIAutumn18MiniAOD-102X_upgrade2018_realistic_v15_ext1-v3'
p239
(dp240
g3
S'TOP-RunIIAutumn18MiniAOD-00066'
p241
sg5
S'218759.2953'
p242
sg7
S'ST_tW_top_5f_NoFullyHadronicDecays_TuneCP5_13TeV-powheg-pythia8/RunIIAutumn18MiniAOD-102X_upgrade2018_realistic_v15_ext1-v3/MINIAODSIM'
p243
sg9
S'34.91'
p244
sg11
S'8000000'
p245
sg13
S'7636887'
p246
ssS'ST_tW_top_5f_NoFullyHadronicDecays_TuneCP5_13TeV-powheg-pythia8RunIIAutumn18MiniAOD-102X_upgrade2018_realistic_v15_ext1-v2'
p247
(dp248
g3
S'TOP-RunIIAutumn18MiniAOD-00049'
p249
sg5
S'31104.18218'
p250
sg7
S'ST_tW_top_5f_NoFullyHadronicDecays_TuneCP5_13TeV-powheg-pythia8/RunIIAutumn18MiniAOD-102X_upgrade2018_realistic_v15_ext1-v2/MINIAODSIM'
p251
sg9
S'34.91'
p252
sg11
S'2000000'
p253
sg13
S'1085847'
p254
ssS'QCD_Pt-300toInf_EMEnriched_TuneCP5_13TeV_pythia8RunIIAutumn18MiniAOD-102X_upgrade2018_realistic_v15-v1'
p255
(dp256
g3
S'EGM-RunIIAutumn18MiniAOD-00014'
p257
sg5
S'322.3727778'
p258
sg7
S'QCD_Pt-300toInf_EMEnriched_TuneCP5_13TeV_pythia8/RunIIAutumn18MiniAOD-102X_upgrade2018_realistic_v15-v1/MINIAODSIM'
p259
sg9
S'9000'
p260
sg11
S'2901355'
p261
sg13
S'2901355'
p262
ssS'QCD_Pt-300to470_MuEnrichedPt5_TuneCP5_13TeV_pythia8RunIIAutumn18MiniAOD-102X_upgrade2018_realistic_v15_ext3-v1'
p263
(dp264
g3
S'BTV-RunIIAutumn18MiniAOD-00094'
p265
sg5
S'4242.924349'
p266
sg7
S'QCD_Pt-300to470_MuEnrichedPt5_TuneCP5_13TeV_pythia8/RunIIAutumn18MiniAOD-102X_upgrade2018_realistic_v15_ext3-v1/MINIAODSIM'
p267
sg9
S'6834'
p268
sg11
S'30000000'
p269
sg13
S'28996145'
p270
ssS'ST_tW_top_5f_inclusiveDecays_TuneCP5_13TeV-powheg-pythia8RunIIAutumn18MiniAOD-102X_upgrade2018_realistic_v15_ext1-v1'
p271
(dp272
g3
S'TOP-RunIIAutumn18MiniAOD-00067'
p273
sg5
S'274935.5486'
p274
sg7
S'ST_tW_top_5f_inclusiveDecays_TuneCP5_13TeV-powheg-pythia8/RunIIAutumn18MiniAOD-102X_upgrade2018_realistic_v15_ext1-v1/MINIAODSIM'
p275
sg9
S'34.91'
p276
sg11
S'10000000'
p277
sg13
S'9598000'
p278
ssS'DYJetsToLL_M-50_TuneCP5_13TeV-amcatnloFXFX-pythia8RunIIAutumn18MiniAOD-102X_upgrade2018_realistic_v15-v1'
p279
(dp280
g3
S'HIG-RunIIAutumn18MiniAOD-00014'
p281
sg5
S'138.9167247'
p282
sg7
S'DYJetsToLL_M-50_TuneCP5_13TeV-amcatnloFXFX-pythia8/RunIIAutumn18MiniAOD-102X_upgrade2018_realistic_v15-v1/MINIAODSIM'
p283
sg9
S'7181'
p284
sg11
S'997561'
p285
sg13
S'997561'
p286
ssS'ST_tW_antitop_5f_NoFullyHadronicDecays_TuneCP5_13TeV-powheg-pythia8RunIIAutumn18MiniAOD-102X_upgrade2018_realistic_v15_ext1-v3'
p287
(dp288
g3
S'TOP-RunIIAutumn18MiniAOD-00065'
p289
sg5
S'166523.5345'
p290
sg7
S'ST_tW_antitop_5f_NoFullyHadronicDecays_TuneCP5_13TeV-powheg-pythia8/RunIIAutumn18MiniAOD-102X_upgrade2018_realistic_v15_ext1-v3/MINIAODSIM'
p291
sg9
S'34.97'
p292
sg11
S'6000000'
p293
sg13
S'5823328'
p294
ssS'ST_tW_antitop_5f_NoFullyHadronicDecays_TuneCP5_13TeV-powheg-pythia8RunIIAutumn18MiniAOD-102X_upgrade2018_realistic_v15_ext1-v2'
p295
(dp296
g3
S'TOP-RunIIAutumn18MiniAOD-00050'
p297
sg5
S'31069.11639'
p298
sg7
S'ST_tW_antitop_5f_NoFullyHadronicDecays_TuneCP5_13TeV-powheg-pythia8/RunIIAutumn18MiniAOD-102X_upgrade2018_realistic_v15_ext1-v2/MINIAODSIM'
p299
sg9
S'34.97'
p300
sg11
S'2000000'
p301
sg13
S'1086487'
p302
ssS'QCD_Pt-120to170_MuEnrichedPt5_TuneCP5_13TeV_pythia8RunIIAutumn18MiniAOD-102X_upgrade2018_realistic_v15_ext1-v2'
p303
(dp304
g3
S'BTV-RunIIAutumn18MiniAOD-00022'
p305
sg5
S'50.3462853'
p306
sg7
S'QCD_Pt-120to170_MuEnrichedPt5_TuneCP5_13TeV_pythia8/RunIIAutumn18MiniAOD-102X_upgrade2018_realistic_v15_ext1-v2/MINIAODSIM'
p307
sg9
S'410800'
p308
sg11
S'20000000'
p309
sg13
S'20682254'
p310
ssS'QCD_Pt-80to120_MuEnrichedPt5_TuneCP5_13TeV_pythia8RunIIAutumn18MiniAOD-102X_upgrade2018_realistic_v15_ext1-v2'
p311
(dp312
g3
S'BTV-RunIIAutumn18MiniAOD-00020'
p313
sg5
S'10.72349507'
p314
sg7
S'QCD_Pt-80to120_MuEnrichedPt5_TuneCP5_13TeV_pythia8/RunIIAutumn18MiniAOD-102X_upgrade2018_realistic_v15_ext1-v2/MINIAODSIM'
p315
sg9
S'2335000'
p316
sg11
S'24000000'
p317
sg13
S'25039361'
p318
ssS'QCD_Pt-800to1000_MuEnrichedPt5_TuneCP5_13TeV_pythia8RunIIAutumn18MiniAOD-102X_upgrade2018_realistic_v15_ext3-v2'
p319
(dp320
g3
S'BTV-RunIIAutumn18MiniAOD-00132'
p321
sg5
S'517794.0931'
p322
sg7
S'QCD_Pt-800to1000_MuEnrichedPt5_TuneCP5_13TeV_pythia8/RunIIAutumn18MiniAOD-102X_upgrade2018_realistic_v15_ext3-v2/MINIAODSIM'
p323
sg9
S'32.3486'
p324
sg11
S'20000000'
p325
sg13
S'16749914'
p326
ssS'ST_tW_antitop_5f_inclusiveDecays_TuneCP5_13TeV-powheg-pythia8RunIIAutumn18MiniAOD-102X_upgrade2018_realistic_v15_ext1-v1'
p327
(dp328
g3
S'TOP-RunIIAutumn18MiniAOD-00068'
p329
sg5
S'217986.8459'
p330
sg7
S'ST_tW_antitop_5f_inclusiveDecays_TuneCP5_13TeV-powheg-pythia8/RunIIAutumn18MiniAOD-102X_upgrade2018_realistic_v15_ext1-v1/MINIAODSIM'
p331
sg9
S'34.97'
p332
sg11
S'8000000'
p333
sg13
S'7623000'
p334
ssS'QCD_Pt-15to20_MuEnrichedPt5_TuneCP5_13TeV_pythia8RunIIAutumn18MiniAOD-102X_upgrade2018_realistic_v15-v3'
p335
(dp336
g3
S'BTV-RunIIAutumn18MiniAOD-00002'
p337
sg5
S'0.005393123159'
p338
sg7
S'QCD_Pt-15to20_MuEnrichedPt5_TuneCP5_13TeV_pythia8/RunIIAutumn18MiniAOD-102X_upgrade2018_realistic_v15-v3/MINIAODSIM'
p339
sg9
S'848500000'
p340
sg11
S'4700000'
p341
sg13
S'4576065'
p342
ssS'TTTo2L2Nu_TuneCP5_13TeV-powheg-pythia8RunIIAutumn18MiniAOD-102X_upgrade2018_realistic_v15-v1'
p343
(dp344
g3
S'TOP-RunIIAutumn18MiniAOD-00004'
p345
sg5
S'891955.6172'
p346
sg7
S'TTTo2L2Nu_TuneCP5_13TeV-powheg-pythia8/RunIIAutumn18MiniAOD-102X_upgrade2018_realistic_v15-v1/MINIAODSIM'
p347
sg9
S'72.1'
p348
sg11
S'67440000'
p349
sg13
S'64310000'
p350
ssS'QCD_Pt-80to120_MuEnrichedPt5_TuneCP5_13TeV_pythia8RunIIAutumn18MiniAOD-102X_upgrade2018_realistic_v15-v1'
p351
(dp352
g3
S'BTV-RunIIAutumn18MiniAOD-00010'
p353
sg5
S'0.2624920771'
p354
sg7
S'QCD_Pt-80to120_MuEnrichedPt5_TuneCP5_13TeV_pythia8/RunIIAutumn18MiniAOD-102X_upgrade2018_realistic_v15-v1/MINIAODSIM'
p355
sg9
S'2335000'
p356
sg11
S'645290'
p357
sg13
S'612919'
p358
ss.